

Microchip MPLAB XC8 Assembler V2.36 build 20220127204148 
                                                                                               Sat Oct 29 17:32:17 2022

Microchip MPLAB XC8 C Compiler v2.36 (Free license) build 20220127204148 Og1 
     1                           	processor	18F8720
     2                           	fnconf	rparam,??,?,0
     3                           	pagewidth 120
     4                           	opt	flic
     5                           	psect	smallconst,global,reloc=2,class=SMALLCONST,delta=1,noexec
     6                           	psect	cinit,global,reloc=2,class=CODE,delta=1
     7                           	psect	cstackBANK0,global,class=BANK0,space=1,delta=1,lowdata,noexec
     8                           	psect	cstackCOMRAM,global,class=COMRAM,space=1,delta=1,lowdata,noexec
     9                           	psect	text0,global,reloc=2,class=CODE,delta=1
    10                           	psect	text1,global,reloc=2,class=CODE,delta=1
    11                           	psect	text2,global,reloc=2,class=CODE,delta=1
    12                           	psect	text3,global,reloc=2,class=CODE,delta=1
    13                           	psect	text4,global,reloc=2,class=CODE,delta=1,group=2
    14                           	psect	text5,global,reloc=2,class=CODE,delta=1
    15                           	psect	text6,global,reloc=2,class=CODE,delta=1
    16                           	psect	text7,global,reloc=2,class=CODE,delta=1
    17                           	psect	text8,global,reloc=2,class=CODE,delta=1
    18                           	psect	text9,global,reloc=2,class=CODE,delta=1
    19                           	psect	intcodelo,global,reloc=2,class=CODE,delta=1
    20                           	psect	text11,global,reloc=2,class=CODE,delta=1
    21                           	psect	text12,global,reloc=2,class=CODE,delta=1
    22                           	psect	text13,global,reloc=2,class=CODE,delta=1
    23                           	psect	text14,global,reloc=2,class=CODE,delta=1
    24                           	psect	text15,global,reloc=2,class=CODE,delta=1
    25                           	psect	intcode,global,reloc=2,class=CODE,delta=1
    26                           	psect	intcode_body,global,reloc=2,class=CODE,delta=1
    27                           	psect	text17,global,reloc=2,class=CODE,delta=1
    28                           	psect	text18,global,reloc=2,class=CODE,delta=1
    29                           	psect	text19,global,reloc=2,class=CODE,delta=1
    30                           	psect	text20,global,reloc=2,class=CODE,delta=1
    31                           	psect	text21,global,reloc=2,class=CODE,delta=1
    32                           	psect	intsave_regs,global,class=BIGRAM,space=1,delta=1,noexec
    33                           	psect	rparam,global,class=COMRAM,space=1,delta=1,noexec
    34                           	psect	temp,global,ovrld,common,class=COMRAM,space=1,delta=1
    35                           	psect	idloc,global,abs,ovrld,class=IDLOC,space=5,delta=1,noexec
    36                           	psect	config,global,abs,ovrld,class=CONFIG,space=4,delta=1,noexec
    37  0000                     
    38                           ; Version 2.40
    39                           ; Generated 17/11/2021 GMT
    40                           ; 
    41                           ; Copyright © 2021, Microchip Technology Inc. and its subsidiaries ("Microchip")
    42                           ; All rights reserved.
    43                           ; 
    44                           ; This software is developed by Microchip Technology Inc. and its subsidiaries ("Microch
      +                          ip").
    45                           ; 
    46                           ; Redistribution and use in source and binary forms, with or without modification, are
    47                           ; permitted provided that the following conditions are met:
    48                           ; 
    49                           ;     1. Redistributions of source code must retain the above copyright notice, this lis
      +                          t of
    50                           ;        conditions and the following disclaimer.
    51                           ; 
    52                           ;     2. Redistributions in binary form must reproduce the above copyright notice, this 
      +                          list
    53                           ;        of conditions and the following disclaimer in the documentation and/or other
    54                           ;        materials provided with the distribution. Publication is not required when
    55                           ;        this file is used in an embedded application.
    56                           ; 
    57                           ;     3. Microchip's name may not be used to endorse or promote products derived from th
      +                          is
    58                           ;        software without specific prior written permission.
    59                           ; 
    60                           ; THIS SOFTWARE IS PROVIDED BY MICROCHIP "AS IS" AND ANY EXPRESS OR IMPLIED WARRANTIES,
    61                           ; INCLUDING, BUT NOT LIMITED TO, THE IMPLIED WARRANTIES OF MERCHANTABILITY AND FITNESS F
      +                          OR
    62                           ; PURPOSE ARE DISCLAIMED.  IN NO EVENT SHALL MICROCHIP BE LIABLE FOR ANY DIRECT, INDIREC
      +                          T,
    63                           ; INCIDENTAL, SPECIAL, EXEMPLARY, OR CONSEQUENTIAL DAMAGES (INCLUDING BUT NOT LIMITED TO
    64                           ; PROCUREMENT OF SUBSTITUTE GOODS OR SERVICES; LOSS OF USE, DATA OR PROFITS; OR BUSINESS
    65                           ; INTERRUPTION) HOWSOEVER CAUSED AND ON ANY THEORY OF LIABILITY, WHETHER IN CONTRACT, ST
      +                          RICT
    66                           ; LIABILITY, OR TORT (INCLUDING NEGLIGENCE OR OTHERWISE) ARISING IN ANY WAY OUT OF THE U
      +                          SE OF
    67                           ; THIS SOFTWARE, EVEN IF ADVISED OF THE POSSIBILITY OF SUCH DAMAGE.
    68                           ; 
    69                           ; 
    70                           ; Code-generator required, PIC18F8720 Definitions
    71                           ; 
    72                           ; SFR Addresses
    73  0000                     _TRISBbits	set	3987
    74  0000                     _TRISCbits	set	3988
    75  0000                     _TRISC3	set	31907
    76  0000                     _TRISC2	set	31906
    77  0000                     _TRISC1	set	31905
    78  0000                     _TRISJ1	set	31953
    79  0000                     _RCSTA2bits	set	3947
    80  0000                     _RCSTA1bits	set	4011
    81  0000                     _CCP2CONbits	set	4026
    82  0000                     _CCP1CONbits	set	4029
    83  0000                     _SSPCON1bits	set	4038
    84  0000                     _T1CONbits	set	4045
    85  0000                     _PORTBbits	set	3969
    86  0000                     _PORTJbits	set	3976
    87  0000                     _TRISB3	set	31899
    88  0000                     _TRISJ0	set	31952
    89  0000                     _RCONbits	set	4048
    90  0000                     _INTCON2bits	set	4081
    91  0000                     _INTCON3bits	set	4080
    92  0000                     _TRISDbits	set	3989
    93  0000                     _TRISC0	set	31904
    94  0000                     _PORTDbits	set	3971
    95  0000                     _INTCONbits	set	4082
    96                           
    97                           	psect	smallconst
    98  000F00                     __psmallconst:
    99                           	callstack 0
   100  000F00  00                 	db	0
   101  000F01                     STR_1:
   102  000F01  50                 	db	80	;'P'
   103  000F02  49                 	db	73	;'I'
   104  000F03  43                 	db	67	;'C'
   105  000F04  31                 	db	49	;'1'
   106  000F05  38                 	db	56	;'8'
   107  000F06  20                 	db	32
   108  000F07  49                 	db	73	;'I'
   109  000F08  4E                 	db	78	;'N'
   110  000F09  54                 	db	84	;'T'
   111  000F0A  45                 	db	69	;'E'
   112  000F0B  52                 	db	82	;'R'
   113  000F0C  52                 	db	82	;'R'
   114  000F0D  55                 	db	85	;'U'
   115  000F0E  50                 	db	80	;'P'
   116  000F0F  54                 	db	84	;'T'
   117  000F10  45                 	db	69	;'E'
   118  000F11  52                 	db	82	;'R'
   119  000F12  53                 	db	83	;'S'
   120  000F13  00                 	db	0
   121  000F14                     STR_2:
   122  000F14  49                 	db	73	;'I'
   123  000F15  4E                 	db	78	;'N'
   124  000F16  54                 	db	84	;'T'
   125  000F17  30                 	db	48	;'0'
   126  000F18  20                 	db	32
   127  000F19  44                 	db	68	;'D'
   128  000F1A  65                 	db	101	;'e'
   129  000F1B  74                 	db	116	;'t'
   130  000F1C  65                 	db	101	;'e'
   131  000F1D  63                 	db	99	;'c'
   132  000F1E  74                 	db	116	;'t'
   133  000F1F  65                 	db	101	;'e'
   134  000F20  64                 	db	100	;'d'
   135  000F21  20                 	db	32
   136  000F22  00                 	db	0
   137  000F23                     STR_3:
   138  000F23  49                 	db	73	;'I'
   139  000F24  4E                 	db	78	;'N'
   140  000F25  54                 	db	84	;'T'
   141  000F26  31                 	db	49	;'1'
   142  000F27  20                 	db	32
   143  000F28  44                 	db	68	;'D'
   144  000F29  65                 	db	101	;'e'
   145  000F2A  74                 	db	116	;'t'
   146  000F2B  65                 	db	101	;'e'
   147  000F2C  63                 	db	99	;'c'
   148  000F2D  74                 	db	116	;'t'
   149  000F2E  65                 	db	101	;'e'
   150  000F2F  64                 	db	100	;'d'
   151  000F30  20                 	db	32
   152  000F31  00                 	db	0
   153  000F32  00                 	db	0	; dummy byte at the end
   154  0000                     
   155                           ; #config settings
   156                           
   157                           	psect	cinit
   158  001C20                     __pcinit:
   159                           	callstack 0
   160  001C20                     start_initialization:
   161                           	callstack 0
   162  001C20                     __initialization:
   163                           	callstack 0
   164  001C20                     end_of_initialization:
   165                           	callstack 0
   166  001C20                     __end_of__initialization:
   167                           	callstack 0
   168  001C20  903A               	bcf	int$flags,0,c	;clear compiler interrupt flag (level 1)
   169  001C22  923A               	bcf	int$flags,1,c	;clear compiler interrupt flag (level 2)
   170  001C24  0E00               	movlw	low (__Lsmallconst shr (0+16))
   171  001C26  6EF8               	movwf	tblptru,c
   172  001C28  0E0F               	movlw	high __Lsmallconst
   173  001C2A  6EF7               	movwf	tblptrh,c
   174  001C2C  0100               	movlb	0
   175  001C2E  EF65  F00D         	goto	_main	;jump to C main() function
   176                           
   177                           	psect	cstackBANK0
   178  000060                     __pcstackBANK0:
   179                           	callstack 0
   180  000060                     i1LCD_DATA@data:
   181                           	callstack 0
   182                           
   183                           ; 1 bytes @ 0x0
   184  000060                     	ds	1
   185  000061                     i1LCD_DATA@_4bit_:
   186                           	callstack 0
   187                           
   188                           ; 8 bytes @ 0x1
   189  000061                     	ds	8
   190  000069                     i1LCD_DATA@_data:
   191                           	callstack 0
   192                           
   193                           ; 1 bytes @ 0x9
   194  000069                     	ds	1
   195  00006A                     i1LCD_DATA@x:
   196                           	callstack 0
   197                           
   198                           ; 2 bytes @ 0xA
   199  00006A                     	ds	2
   200  00006C                     i1LCD_DATA@x_979:
   201                           	callstack 0
   202                           
   203                           ; 2 bytes @ 0xC
   204  00006C                     	ds	2
   205  00006E                     ??_ISR_2:
   206                           
   207                           ; 1 bytes @ 0xE
   208  00006E                     	ds	10
   209  000078                     _ISR_2$1093:
   210                           	callstack 0
   211                           
   212                           ; 1 bytes @ 0x18
   213  000078                     	ds	1
   214  000079                     ??_Blink_LED:
   215  000079                     ??_LCD_INSTRUCTION_4BIT:
   216  000079                     ?_strlen:
   217                           	callstack 0
   218  000079                     LCD_DATA@mode:
   219                           	callstack 0
   220  000079                     strlen@s:
   221                           	callstack 0
   222                           
   223                           ; 2 bytes @ 0x19
   224  000079                     	ds	2
   225  00007B                     ??_LCD_DATA:
   226  00007B                     strlen@cp:
   227                           	callstack 0
   228                           
   229                           ; 2 bytes @ 0x1B
   230  00007B                     	ds	4
   231  00007F                     LCD_INSTRUCTION_4BIT@instruction:
   232                           	callstack 0
   233                           
   234                           ; 1 bytes @ 0x1F
   235  00007F                     	ds	1
   236  000080                     LCD_INSTRUCTION_4BIT@_4bit_:
   237                           	callstack 0
   238                           
   239                           ; 8 bytes @ 0x20
   240  000080                     	ds	1
   241  000081                     LCD_DATA@data:
   242                           	callstack 0
   243                           
   244                           ; 1 bytes @ 0x21
   245  000081                     	ds	1
   246  000082                     LCD_DATA@_4bit_:
   247                           	callstack 0
   248                           
   249                           ; 8 bytes @ 0x22
   250  000082                     	ds	6
   251  000088                     LCD_INSTRUCTION_4BIT@data:
   252                           	callstack 0
   253                           
   254                           ; 1 bytes @ 0x28
   255  000088                     	ds	1
   256  000089                     LCD_INSTRUCTION_4BIT@x:
   257                           	callstack 0
   258                           
   259                           ; 2 bytes @ 0x29
   260  000089                     	ds	1
   261  00008A                     LCD_DATA@_data:
   262                           	callstack 0
   263                           
   264                           ; 1 bytes @ 0x2A
   265  00008A                     	ds	1
   266  00008B                     LCD_DATA@x:
   267                           	callstack 0
   268  00008B                     LCD_INSTRUCTION_4BIT@x_985:
   269                           	callstack 0
   270                           
   271                           ; 2 bytes @ 0x2B
   272  00008B                     	ds	2
   273  00008D                     LCD_DATA@x_979:
   274                           	callstack 0
   275                           
   276                           ; 2 bytes @ 0x2D
   277  00008D                     	ds	2
   278  00008F                     LCD_DISPLAY@string:
   279                           	callstack 0
   280                           
   281                           ; 2 bytes @ 0x2F
   282  00008F                     	ds	2
   283  000091                     ??_LCD_DISPLAY:
   284                           
   285                           ; 1 bytes @ 0x31
   286  000091                     	ds	2
   287  000093                     LCD_DISPLAY@length:
   288                           	callstack 0
   289                           
   290                           ; 2 bytes @ 0x33
   291  000093                     	ds	2
   292  000095                     LCD_DISPLAY@x:
   293                           	callstack 0
   294                           
   295                           ; 2 bytes @ 0x35
   296  000095                     	ds	2
   297  000097                     
   298                           ; 1 bytes @ 0x37
   299                           
   300                           	psect	cstackCOMRAM
   301  000001                     __pcstackCOMRAM:
   302                           	callstack 0
   303  000001                     ??i2_LCD_INSTRUCTION_4BIT:
   304  000001                     ?i2_strlen:
   305                           	callstack 0
   306  000001                     i2LCD_DATA@mode:
   307                           	callstack 0
   308  000001                     i2strlen@s:
   309                           	callstack 0
   310                           
   311                           ; 2 bytes @ 0x0
   312  000001                     	ds	2
   313  000003                     ??i2_LCD_DATA:
   314  000003                     i2strlen@cp:
   315                           	callstack 0
   316                           
   317                           ; 2 bytes @ 0x2
   318  000003                     	ds	4
   319  000007                     i2LCD_INSTRUCTION_4BIT@instruction:
   320                           	callstack 0
   321                           
   322                           ; 1 bytes @ 0x6
   323  000007                     	ds	1
   324  000008                     i2LCD_INSTRUCTION_4BIT@_4bit_:
   325                           	callstack 0
   326                           
   327                           ; 8 bytes @ 0x7
   328  000008                     	ds	1
   329  000009                     i2LCD_DATA@data:
   330                           	callstack 0
   331                           
   332                           ; 1 bytes @ 0x8
   333  000009                     	ds	1
   334  00000A                     i2LCD_DATA@_4bit_:
   335                           	callstack 0
   336                           
   337                           ; 8 bytes @ 0x9
   338  00000A                     	ds	6
   339  000010                     i2LCD_INSTRUCTION_4BIT@data:
   340                           	callstack 0
   341                           
   342                           ; 1 bytes @ 0xF
   343  000010                     	ds	1
   344  000011                     i2LCD_INSTRUCTION_4BIT@x:
   345                           	callstack 0
   346                           
   347                           ; 2 bytes @ 0x10
   348  000011                     	ds	1
   349  000012                     i2LCD_DATA@_data:
   350                           	callstack 0
   351                           
   352                           ; 1 bytes @ 0x11
   353  000012                     	ds	1
   354  000013                     i2LCD_DATA@x:
   355                           	callstack 0
   356  000013                     i2LCD_INSTRUCTION_4BIT@x_985:
   357                           	callstack 0
   358                           
   359                           ; 2 bytes @ 0x12
   360  000013                     	ds	2
   361  000015                     i2LCD_DATA@x_979:
   362                           	callstack 0
   363                           
   364                           ; 2 bytes @ 0x14
   365  000015                     	ds	2
   366  000017                     i2LCD_DISPLAY@string:
   367                           	callstack 0
   368                           
   369                           ; 2 bytes @ 0x16
   370  000017                     	ds	2
   371  000019                     ??i2_LCD_DISPLAY:
   372                           
   373                           ; 1 bytes @ 0x18
   374  000019                     	ds	2
   375  00001B                     i2LCD_DISPLAY@length:
   376                           	callstack 0
   377                           
   378                           ; 2 bytes @ 0x1A
   379  00001B                     	ds	2
   380  00001D                     i2LCD_DISPLAY@x:
   381                           	callstack 0
   382                           
   383                           ; 2 bytes @ 0x1C
   384  00001D                     	ds	2
   385  00001F                     ??_ISR_1:
   386                           
   387                           ; 1 bytes @ 0x1E
   388  00001F                     	ds	7
   389  000026                     ??i1_LCD_INSTRUCTION_4BIT:
   390  000026                     ?i1_strlen:
   391                           	callstack 0
   392  000026                     i1LCD_DATA@mode:
   393                           	callstack 0
   394  000026                     i1strlen@s:
   395                           	callstack 0
   396                           
   397                           ; 2 bytes @ 0x25
   398  000026                     	ds	2
   399  000028                     ??i1_LCD_DATA:
   400  000028                     i1strlen@cp:
   401                           	callstack 0
   402                           
   403                           ; 2 bytes @ 0x27
   404  000028                     	ds	4
   405  00002C                     i1LCD_INSTRUCTION_4BIT@instruction:
   406                           	callstack 0
   407                           
   408                           ; 1 bytes @ 0x2B
   409  00002C                     	ds	1
   410  00002D                     i1LCD_INSTRUCTION_4BIT@_4bit_:
   411                           	callstack 0
   412                           
   413                           ; 8 bytes @ 0x2C
   414  00002D                     	ds	1
   415  00002E                     i1LCD_DISPLAY@string:
   416                           	callstack 0
   417                           
   418                           ; 2 bytes @ 0x2D
   419  00002E                     	ds	2
   420  000030                     ??i1_LCD_DISPLAY:
   421                           
   422                           ; 1 bytes @ 0x2F
   423  000030                     	ds	2
   424  000032                     i1LCD_DISPLAY@length:
   425                           	callstack 0
   426                           
   427                           ; 2 bytes @ 0x31
   428  000032                     	ds	2
   429  000034                     i1LCD_DISPLAY@x:
   430                           	callstack 0
   431                           
   432                           ; 2 bytes @ 0x33
   433  000034                     	ds	1
   434  000035                     i1LCD_INSTRUCTION_4BIT@data:
   435                           	callstack 0
   436                           
   437                           ; 1 bytes @ 0x34
   438  000035                     	ds	1
   439  000036                     i1LCD_INSTRUCTION_4BIT@x:
   440                           	callstack 0
   441                           
   442                           ; 2 bytes @ 0x35
   443  000036                     	ds	2
   444  000038                     i1LCD_INSTRUCTION_4BIT@x_985:
   445                           	callstack 0
   446                           
   447                           ; 2 bytes @ 0x37
   448  000038                     	ds	2
   449  00003A                     
   450                           ; 1 bytes @ 0x39
   451 ;;
   452 ;;Main: autosize = 0, tempsize = 0, incstack = 0, save=0
   453 ;;
   454 ;; *************** function _main *****************
   455 ;; Defined at:
   456 ;;		line 83 in file "main.c"
   457 ;; Parameters:    Size  Location     Type
   458 ;;		None
   459 ;; Auto vars:     Size  Location     Type
   460 ;;		None
   461 ;; Return value:  Size  Location     Type
   462 ;;                  1    wreg      void 
   463 ;; Registers used:
   464 ;;		wreg, fsr2l, fsr2h, status,2, status,0, tblptrl, tblptrh, tblptru, cstack
   465 ;; Tracked objects:
   466 ;;		On entry : 0/0
   467 ;;		On exit  : 0/0
   468 ;;		Unchanged: 0/0
   469 ;; Data sizes:     COMRAM   BANK0   BANK1   BANK2   BANK3   BANK4   BANK5   BANK6   BANK7   BANK8   BANK9  BANK10  BANK1
      +1  BANK12  BANK13  BANK14
   470 ;;      Params:         0       0       0       0       0       0       0       0       0       0       0       0       
      +0       0       0       0
   471 ;;      Locals:         0       0       0       0       0       0       0       0       0       0       0       0       
      +0       0       0       0
   472 ;;      Temps:          0       0       0       0       0       0       0       0       0       0       0       0       
      +0       0       0       0
   473 ;;      Totals:         0       0       0       0       0       0       0       0       0       0       0       0       
      +0       0       0       0
   474 ;;Total ram usage:        0 bytes
   475 ;; Hardware stack levels required when called: 8
   476 ;; This function calls:
   477 ;;		_Blink_LED
   478 ;;		_Interrupt_init
   479 ;;		_LCD_20_LINE1
   480 ;;		_LCD_DISPLAY
   481 ;;		_LCD_INITIALIZE_4BIT
   482 ;;		_LCD_SETUP_4BIT
   483 ;; This function is called by:
   484 ;;		Startup code after reset
   485 ;; This function uses a non-reentrant model
   486 ;;
   487                           
   488                           	psect	text0
   489  001ACA                     __ptext0:
   490                           	callstack 0
   491  001ACA                     _main:
   492                           	callstack 23
   493  001ACA                     
   494                           ;main.c: 85: TRISDbits.TRISD7 = 0x00;
   495  001ACA  9E95               	bcf	149,7,c	;volatile
   496                           
   497                           ;main.c: 86: TRISDbits.TRISD6 = 0x00;
   498  001ACC  9C95               	bcf	149,6,c	;volatile
   499                           
   500                           ;main.c: 87: TRISDbits.TRISD5 = 0x00;
   501  001ACE  9A95               	bcf	149,5,c	;volatile
   502                           
   503                           ;main.c: 89: TRISDbits.TRISD0 = 0x00;
   504  001AD0  9095               	bcf	149,0,c	;volatile
   505                           
   506                           ;main.c: 90: TRISBbits.TRISB0 = 0x01;
   507  001AD2  8093               	bsf	147,0,c	;volatile
   508                           
   509                           ;main.c: 92: PORTDbits.RD7 = 0x00;
   510  001AD4  9E83               	bcf	131,7,c	;volatile
   511                           
   512                           ;main.c: 93: PORTDbits.RD6 = 0x00;
   513  001AD6  9C83               	bcf	131,6,c	;volatile
   514                           
   515                           ;main.c: 94: PORTDbits.RD5 = 0x00;
   516  001AD8  9A83               	bcf	131,5,c	;volatile
   517  001ADA                     
   518                           ;main.c: 96: Interrupt_init();
   519  001ADA  ECED  F00D         	call	_Interrupt_init	;wreg free
   520  001ADE                     
   521                           ;main.c: 97: LCD_SETUP_4BIT();
   522  001ADE  ECD9  F00D         	call	_LCD_SETUP_4BIT	;wreg free
   523  001AE2                     
   524                           ;main.c: 98: LCD_INITIALIZE_4BIT();
   525  001AE2  EC00  F00E         	call	_LCD_INITIALIZE_4BIT	;wreg free
   526  001AE6                     l1629:
   527                           
   528                           ;main.c: 101: Blink_LED();
   529  001AE6  EC82  F00D         	call	_Blink_LED	;wreg free
   530  001AEA                     
   531                           ;main.c: 102: LCD_20_LINE1();
   532  001AEA  EC19  F00E         	call	_LCD_20_LINE1	;wreg free
   533  001AEE                     
   534                           ;main.c: 103: LCD_DISPLAY("PIC18 INTERRUPTERS");
   535  001AEE  0E01               	movlw	low STR_1
   536  001AF0  0100               	movlb	0	; () banked
   537  001AF2  6F8F               	movwf	LCD_DISPLAY@string& (0+255),b
   538  001AF4  0E0F               	movlw	high STR_1
   539  001AF6  6F90               	movwf	(LCD_DISPLAY@string+1)& (0+255),b
   540  001AF8  ECB4  F00C         	call	_LCD_DISPLAY	;wreg free
   541  001AFC  EF73  F00D         	goto	l1629
   542  001B00  EF6B  F000         	goto	start
   543  001B04                     __end_of_main:
   544                           	callstack 0
   545                           
   546 ;; *************** function _LCD_SETUP_4BIT *****************
   547 ;; Defined at:
   548 ;;		line 34 in file "LCD.h"
   549 ;; Parameters:    Size  Location     Type
   550 ;;		None
   551 ;; Auto vars:     Size  Location     Type
   552 ;;		None
   553 ;; Return value:  Size  Location     Type
   554 ;;                  1    wreg      void 
   555 ;; Registers used:
   556 ;;		None
   557 ;; Tracked objects:
   558 ;;		On entry : 0/0
   559 ;;		On exit  : 0/0
   560 ;;		Unchanged: 0/0
   561 ;; Data sizes:     COMRAM   BANK0   BANK1   BANK2   BANK3   BANK4   BANK5   BANK6   BANK7   BANK8   BANK9  BANK10  BANK1
      +1  BANK12  BANK13  BANK14
   562 ;;      Params:         0       0       0       0       0       0       0       0       0       0       0       0       
      +0       0       0       0
   563 ;;      Locals:         0       0       0       0       0       0       0       0       0       0       0       0       
      +0       0       0       0
   564 ;;      Temps:          0       0       0       0       0       0       0       0       0       0       0       0       
      +0       0       0       0
   565 ;;      Totals:         0       0       0       0       0       0       0       0       0       0       0       0       
      +0       0       0       0
   566 ;;Total ram usage:        0 bytes
   567 ;; Hardware stack levels used: 1
   568 ;; Hardware stack levels required when called: 6
   569 ;; This function calls:
   570 ;;		Nothing
   571 ;; This function is called by:
   572 ;;		_main
   573 ;; This function uses a non-reentrant model
   574 ;;
   575                           
   576                           	psect	text1
   577  001BB2                     __ptext1:
   578                           	callstack 0
   579  001BB2                     _LCD_SETUP_4BIT:
   580                           	callstack 24
   581  001BB2                     
   582                           ;LCD.h: 40: CCP2CONbits.CCP2M0 = 0x00;
   583  001BB2  90BA               	bcf	186,0,c	;volatile
   584                           
   585                           ;LCD.h: 41: CCP2CONbits.CCP2M1 = 0x00;
   586  001BB4  92BA               	bcf	186,1,c	;volatile
   587                           
   588                           ;LCD.h: 42: CCP2CONbits.CCP2M2 = 0x00;
   589  001BB6  94BA               	bcf	186,2,c	;volatile
   590                           
   591                           ;LCD.h: 43: CCP2CONbits.CCP2M3 = 0x00;
   592  001BB8  96BA               	bcf	186,3,c	;volatile
   593                           
   594                           ;LCD.h: 48: CCP1CONbits.CCP1M0 = 0x00;
   595  001BBA  90BD               	bcf	189,0,c	;volatile
   596                           
   597                           ;LCD.h: 49: CCP1CONbits.CCP1M1 = 0x00;
   598  001BBC  92BD               	bcf	189,1,c	;volatile
   599                           
   600                           ;LCD.h: 50: CCP1CONbits.CCP1M2 = 0x00;
   601  001BBE  94BD               	bcf	189,2,c	;volatile
   602                           
   603                           ;LCD.h: 51: CCP1CONbits.CCP1M3 = 0x00;
   604  001BC0  96BD               	bcf	189,3,c	;volatile
   605                           
   606                           ;LCD.h: 53: SSPCON1bits.SSPEN = 0x00;
   607  001BC2  9AC6               	bcf	198,5,c	;volatile
   608                           
   609                           ;LCD.h: 54: RCSTA1bits.SPEN = 0x00;
   610  001BC4  9EAB               	bcf	171,7,c	;volatile
   611                           
   612                           ;LCD.h: 55: RCSTA2bits.SPEN2 = 0x00;
   613  001BC6  9E6B               	bcf	107,7,c	;volatile
   614                           
   615                           ;LCD.h: 57: T1CONbits.T1OSCEN = 0x00;
   616  001BC8  96CD               	bcf	205,3,c	;volatile
   617                           
   618                           ;LCD.h: 59: TRISJ0 = 0x00;
   619  001BCA  909A               	bcf	3994,0,c	;volatile
   620                           
   621                           ;LCD.h: 60: TRISJ1 = 0x00;
   622  001BCC  929A               	bcf	3994,1,c	;volatile
   623                           
   624                           ;LCD.h: 61: TRISB3 = 0x00;
   625  001BCE  9693               	bcf	3987,3,c	;volatile
   626                           
   627                           ;LCD.h: 63: TRISC0 = 0x00;
   628  001BD0  9094               	bcf	3988,0,c	;volatile
   629                           
   630                           ;LCD.h: 64: TRISC1 = 0x00;
   631  001BD2  9294               	bcf	3988,1,c	;volatile
   632                           
   633                           ;LCD.h: 65: TRISC2 = 0x00;
   634  001BD4  9494               	bcf	3988,2,c	;volatile
   635                           
   636                           ;LCD.h: 66: TRISC3 = 0x00;
   637  001BD6  9694               	bcf	3988,3,c	;volatile
   638  001BD8  0012               	return		;funcret
   639  001BDA                     __end_of_LCD_SETUP_4BIT:
   640                           	callstack 0
   641                           
   642 ;; *************** function _LCD_INITIALIZE_4BIT *****************
   643 ;; Defined at:
   644 ;;		line 139 in file "LCD.h"
   645 ;; Parameters:    Size  Location     Type
   646 ;;		None
   647 ;; Auto vars:     Size  Location     Type
   648 ;;		None
   649 ;; Return value:  Size  Location     Type
   650 ;;                  1    wreg      void 
   651 ;; Registers used:
   652 ;;		wreg, fsr2l, fsr2h, status,2, status,0, cstack
   653 ;; Tracked objects:
   654 ;;		On entry : 0/0
   655 ;;		On exit  : 0/0
   656 ;;		Unchanged: 0/0
   657 ;; Data sizes:     COMRAM   BANK0   BANK1   BANK2   BANK3   BANK4   BANK5   BANK6   BANK7   BANK8   BANK9  BANK10  BANK1
      +1  BANK12  BANK13  BANK14
   658 ;;      Params:         0       0       0       0       0       0       0       0       0       0       0       0       
      +0       0       0       0
   659 ;;      Locals:         0       0       0       0       0       0       0       0       0       0       0       0       
      +0       0       0       0
   660 ;;      Temps:          0       0       0       0       0       0       0       0       0       0       0       0       
      +0       0       0       0
   661 ;;      Totals:         0       0       0       0       0       0       0       0       0       0       0       0       
      +0       0       0       0
   662 ;;Total ram usage:        0 bytes
   663 ;; Hardware stack levels used: 1
   664 ;; Hardware stack levels required when called: 7
   665 ;; This function calls:
   666 ;;		_LCD_INSTRUCTION_4BIT
   667 ;; This function is called by:
   668 ;;		_main
   669 ;; This function uses a non-reentrant model
   670 ;;
   671                           
   672                           	psect	text2
   673  001C00                     __ptext2:
   674                           	callstack 0
   675  001C00                     _LCD_INITIALIZE_4BIT:
   676                           	callstack 23
   677  001C00                     
   678                           ;LCD.h: 140: LCD_INSTRUCTION_4BIT(0x02);
   679  001C00  0E02               	movlw	2
   680  001C02  EC4E  F009         	call	_LCD_INSTRUCTION_4BIT
   681                           
   682                           ;LCD.h: 141: LCD_INSTRUCTION_4BIT(0x28);
   683  001C06  0E28               	movlw	40
   684  001C08  EC4E  F009         	call	_LCD_INSTRUCTION_4BIT
   685                           
   686                           ;LCD.h: 142: LCD_INSTRUCTION_4BIT(0x0c);
   687  001C0C  0E0C               	movlw	12
   688  001C0E  EC4E  F009         	call	_LCD_INSTRUCTION_4BIT
   689                           
   690                           ;LCD.h: 143: LCD_INSTRUCTION_4BIT(0x06);
   691  001C12  0E06               	movlw	6
   692  001C14  EC4E  F009         	call	_LCD_INSTRUCTION_4BIT
   693                           
   694                           ;LCD.h: 144: LCD_INSTRUCTION_4BIT(0x01);
   695  001C18  0E01               	movlw	1
   696  001C1A  EC4E  F009         	call	_LCD_INSTRUCTION_4BIT
   697  001C1E  0012               	return		;funcret
   698  001C20                     __end_of_LCD_INITIALIZE_4BIT:
   699                           	callstack 0
   700                           
   701 ;; *************** function _LCD_DISPLAY *****************
   702 ;; Defined at:
   703 ;;		line 149 in file "LCD.h"
   704 ;; Parameters:    Size  Location     Type
   705 ;;  string          2   47[BANK0 ] PTR const unsigned char 
   706 ;;		 -> STR_3(15), STR_2(15), STR_1(19), 
   707 ;; Auto vars:     Size  Location     Type
   708 ;;  x               2   53[BANK0 ] int 
   709 ;;  length          2   51[BANK0 ] unsigned int 
   710 ;; Return value:  Size  Location     Type
   711 ;;                  1    wreg      void 
   712 ;; Registers used:
   713 ;;		wreg, fsr2l, fsr2h, status,2, status,0, tblptrl, tblptrh, tblptru, cstack
   714 ;; Tracked objects:
   715 ;;		On entry : 0/0
   716 ;;		On exit  : 0/0
   717 ;;		Unchanged: 0/0
   718 ;; Data sizes:     COMRAM   BANK0   BANK1   BANK2   BANK3   BANK4   BANK5   BANK6   BANK7   BANK8   BANK9  BANK10  BANK1
      +1  BANK12  BANK13  BANK14
   719 ;;      Params:         0       2       0       0       0       0       0       0       0       0       0       0       
      +0       0       0       0
   720 ;;      Locals:         0       4       0       0       0       0       0       0       0       0       0       0       
      +0       0       0       0
   721 ;;      Temps:          0       2       0       0       0       0       0       0       0       0       0       0       
      +0       0       0       0
   722 ;;      Totals:         0       8       0       0       0       0       0       0       0       0       0       0       
      +0       0       0       0
   723 ;;Total ram usage:        8 bytes
   724 ;; Hardware stack levels used: 1
   725 ;; Hardware stack levels required when called: 7
   726 ;; This function calls:
   727 ;;		_LCD_DATA
   728 ;;		_strlen
   729 ;; This function is called by:
   730 ;;		_main
   731 ;; This function uses a non-reentrant model
   732 ;;
   733                           
   734                           	psect	text3
   735  001968                     __ptext3:
   736                           	callstack 0
   737  001968                     _LCD_DISPLAY:
   738                           	callstack 23
   739  001968                     
   740                           ;LCD.h: 150: unsigned int length = strlen(string);
   741  001968  C08F  F079         	movff	LCD_DISPLAY@string,strlen@s
   742  00196C  C090  F07A         	movff	LCD_DISPLAY@string+1,strlen@s+1
   743  001970  EC46  F00D         	call	_strlen	;wreg free
   744  001974  C079  F093         	movff	?_strlen,LCD_DISPLAY@length
   745  001978  C07A  F094         	movff	?_strlen+1,LCD_DISPLAY@length+1
   746  00197C                     
   747                           ;LCD.h: 151: signed int x;;LCD.h: 152: for(x = 0x00 ; x < length ; x-=-0x01){
   748  00197C  0E00               	movlw	0
   749  00197E  0100               	movlb	0	; () banked
   750  001980  6F96               	movwf	(LCD_DISPLAY@x+1)& (0+255),b
   751  001982  0E00               	movlw	0
   752  001984  6F95               	movwf	LCD_DISPLAY@x& (0+255),b
   753  001986  EFDA  F00C         	goto	l1551
   754  00198A                     l1547:
   755                           
   756                           ; BSR set to: 0
   757                           ;LCD.h: 153: LCD_DATA(string[x],0x04);
   758  00198A  0E00               	movlw	0
   759  00198C  6F7A               	movwf	(LCD_DATA@mode+1)& (0+255),b
   760  00198E  0E04               	movlw	4
   761  001990  6F79               	movwf	LCD_DATA@mode& (0+255),b
   762  001992  5195               	movf	LCD_DISPLAY@x& (0+255),w,b
   763  001994  258F               	addwf	LCD_DISPLAY@string& (0+255),w,b
   764  001996  6F91               	movwf	??_LCD_DISPLAY& (0+255),b
   765  001998  5196               	movf	(LCD_DISPLAY@x+1)& (0+255),w,b
   766  00199A  2190               	addwfc	(LCD_DISPLAY@string+1)& (0+255),w,b
   767  00199C  6F92               	movwf	(??_LCD_DISPLAY+1)& (0+255),b
   768  00199E  C091  FFF6         	movff	??_LCD_DISPLAY,tblptrl
   769  0019A2  C092  FFF7         	movff	??_LCD_DISPLAY+1,tblptrh
   770  0019A6                     	if	0	;tblptru may be non-zero
   771  0019A6                     	endif
   772  0019A6                     	if	0	;tblptru may be non-zero
   773  0019A6                     	endif
   774  0019A6  0008               	tblrd		*
   775  0019A8  50F5               	movf	tablat,w,c
   776  0019AA  EC9A  F007         	call	_LCD_DATA
   777  0019AE  0100               	movlb	0	; () banked
   778  0019B0  4B95               	infsnz	LCD_DISPLAY@x& (0+255),f,b
   779  0019B2  2B96               	incf	(LCD_DISPLAY@x+1)& (0+255),f,b
   780  0019B4                     l1551:
   781                           
   782                           ; BSR set to: 0
   783  0019B4  5193               	movf	LCD_DISPLAY@length& (0+255),w,b
   784  0019B6  5D95               	subwf	LCD_DISPLAY@x& (0+255),w,b
   785  0019B8  5194               	movf	(LCD_DISPLAY@length+1)& (0+255),w,b
   786  0019BA  5996               	subwfb	(LCD_DISPLAY@x+1)& (0+255),w,b
   787  0019BC  A0D8               	btfss	status,0,c
   788  0019BE  EFE3  F00C         	goto	u1901
   789  0019C2  EFE5  F00C         	goto	u1900
   790  0019C6                     u1901:
   791  0019C6  EFC5  F00C         	goto	l1547
   792  0019CA                     u1900:
   793  0019CA                     
   794                           ; BSR set to: 0
   795  0019CA  0012               	return		;funcret
   796  0019CC                     __end_of_LCD_DISPLAY:
   797                           	callstack 0
   798                           
   799 ;; *************** function _strlen *****************
   800 ;; Defined at:
   801 ;;		line 4 in file "C:\Program Files\Microchip\xc8\v2.36\pic\sources\c90\common\strlen.c"
   802 ;; Parameters:    Size  Location     Type
   803 ;;  s               2   25[BANK0 ] PTR const unsigned char 
   804 ;;		 -> STR_3(15), STR_2(15), STR_1(19), 
   805 ;; Auto vars:     Size  Location     Type
   806 ;;  cp              2   27[BANK0 ] PTR const unsigned char 
   807 ;;		 -> STR_3(15), STR_2(15), STR_1(19), 
   808 ;; Return value:  Size  Location     Type
   809 ;;                  2   25[BANK0 ] unsigned int 
   810 ;; Registers used:
   811 ;;		wreg, status,2, status,0, tblptrl, tblptrh, tblptru
   812 ;; Tracked objects:
   813 ;;		On entry : 0/0
   814 ;;		On exit  : 0/0
   815 ;;		Unchanged: 0/0
   816 ;; Data sizes:     COMRAM   BANK0   BANK1   BANK2   BANK3   BANK4   BANK5   BANK6   BANK7   BANK8   BANK9  BANK10  BANK1
      +1  BANK12  BANK13  BANK14
   817 ;;      Params:         0       2       0       0       0       0       0       0       0       0       0       0       
      +0       0       0       0
   818 ;;      Locals:         0       2       0       0       0       0       0       0       0       0       0       0       
      +0       0       0       0
   819 ;;      Temps:          0       0       0       0       0       0       0       0       0       0       0       0       
      +0       0       0       0
   820 ;;      Totals:         0       4       0       0       0       0       0       0       0       0       0       0       
      +0       0       0       0
   821 ;;Total ram usage:        4 bytes
   822 ;; Hardware stack levels used: 1
   823 ;; Hardware stack levels required when called: 6
   824 ;; This function calls:
   825 ;;		Nothing
   826 ;; This function is called by:
   827 ;;		_LCD_DISPLAY
   828 ;; This function uses a non-reentrant model
   829 ;;
   830                           
   831                           	psect	text4
   832  001A8C                     __ptext4:
   833                           	callstack 0
   834  001A8C                     _strlen:
   835                           	callstack 23
   836  001A8C  C079  F07B         	movff	strlen@s,strlen@cp
   837  001A90  C07A  F07C         	movff	strlen@s+1,strlen@cp+1
   838  001A94  EF4F  F00D         	goto	l1357
   839  001A98                     l1355:
   840  001A98  0100               	movlb	0	; () banked
   841  001A9A  4B7B               	infsnz	strlen@cp& (0+255),f,b
   842  001A9C  2B7C               	incf	(strlen@cp+1)& (0+255),f,b
   843  001A9E                     l1357:
   844  001A9E  C07B  FFF6         	movff	strlen@cp,tblptrl
   845  001AA2  C07C  FFF7         	movff	strlen@cp+1,tblptrh
   846  001AA6                     	if	0	;tblptru may be non-zero
   847  001AA6                     	endif
   848  001AA6                     	if	0	;tblptru may be non-zero
   849  001AA6                     	endif
   850  001AA6  0008               	tblrd		*
   851  001AA8  50F5               	movf	tablat,w,c
   852  001AAA  0900               	iorlw	0
   853  001AAC  A4D8               	btfss	status,2,c
   854  001AAE  EF5B  F00D         	goto	u1291
   855  001AB2  EF5D  F00D         	goto	u1290
   856  001AB6                     u1291:
   857  001AB6  EF4C  F00D         	goto	l1355
   858  001ABA                     u1290:
   859  001ABA  0100               	movlb	0	; () banked
   860  001ABC  5179               	movf	strlen@s& (0+255),w,b
   861  001ABE  5D7B               	subwf	strlen@cp& (0+255),w,b
   862  001AC0  6F79               	movwf	?_strlen& (0+255),b
   863  001AC2  517A               	movf	(strlen@s+1)& (0+255),w,b
   864  001AC4  597C               	subwfb	(strlen@cp+1)& (0+255),w,b
   865  001AC6  6F7A               	movwf	(?_strlen+1)& (0+255),b
   866  001AC8                     
   867                           ; BSR set to: 0
   868  001AC8  0012               	return		;funcret
   869  001ACA                     __end_of_strlen:
   870                           	callstack 0
   871                           
   872 ;; *************** function _LCD_DATA *****************
   873 ;; Defined at:
   874 ;;		line 71 in file "LCD.h"
   875 ;; Parameters:    Size  Location     Type
   876 ;;  data            1    wreg     unsigned char 
   877 ;;  mode            2   25[BANK0 ] int 
   878 ;; Auto vars:     Size  Location     Type
   879 ;;  data            1   33[BANK0 ] unsigned char 
   880 ;;  x               2   45[BANK0 ] int 
   881 ;;  x               2   43[BANK0 ] int 
   882 ;;  _4bit_          8   34[BANK0 ] unsigned int [4]
   883 ;;  _data           1   42[BANK0 ] unsigned char 
   884 ;; Return value:  Size  Location     Type
   885 ;;                  1    wreg      void 
   886 ;; Registers used:
   887 ;;		wreg, fsr2l, fsr2h, status,2, status,0
   888 ;; Tracked objects:
   889 ;;		On entry : 0/0
   890 ;;		On exit  : 0/0
   891 ;;		Unchanged: 0/0
   892 ;; Data sizes:     COMRAM   BANK0   BANK1   BANK2   BANK3   BANK4   BANK5   BANK6   BANK7   BANK8   BANK9  BANK10  BANK1
      +1  BANK12  BANK13  BANK14
   893 ;;      Params:         0       2       0       0       0       0       0       0       0       0       0       0       
      +0       0       0       0
   894 ;;      Locals:         0      14       0       0       0       0       0       0       0       0       0       0       
      +0       0       0       0
   895 ;;      Temps:          0       6       0       0       0       0       0       0       0       0       0       0       
      +0       0       0       0
   896 ;;      Totals:         0      22       0       0       0       0       0       0       0       0       0       0       
      +0       0       0       0
   897 ;;Total ram usage:       22 bytes
   898 ;; Hardware stack levels used: 1
   899 ;; Hardware stack levels required when called: 6
   900 ;; This function calls:
   901 ;;		Nothing
   902 ;; This function is called by:
   903 ;;		_LCD_DISPLAY
   904 ;;		_LCD_DISPLAY_DIGIT
   905 ;; This function uses a non-reentrant model
   906 ;;
   907                           
   908                           	psect	text5
   909  000F34                     __ptext5:
   910                           	callstack 0
   911  000F34                     _LCD_DATA:
   912                           	callstack 23
   913                           
   914                           ; BSR set to: 0
   915                           ;incstack = 0
   916                           ;LCD_DATA@data stored from wreg
   917  000F34  0100               	movlb	0	; () banked
   918  000F36  6F81               	movwf	LCD_DATA@data& (0+255),b
   919  000F38                     
   920                           ;LCD.h: 72: unsigned char _data = data;
   921  000F38  C081  F08A         	movff	LCD_DATA@data,LCD_DATA@_data
   922  000F3C                     
   923                           ;LCD.h: 73: unsigned int _4bit_[0x04];;LCD.h: 74: if(mode == 0x04){
   924  000F3C  0E04               	movlw	4
   925  000F3E  0100               	movlb	0	; () banked
   926  000F40  1979               	xorwf	LCD_DATA@mode& (0+255),w,b
   927  000F42  117A               	iorwf	(LCD_DATA@mode+1)& (0+255),w,b
   928  000F44  A4D8               	btfss	status,2,c
   929  000F46  EFA7  F007         	goto	u1001
   930  000F4A  EFA9  F007         	goto	u1000
   931  000F4E                     u1001:
   932  000F4E  EF73  F008         	goto	l65
   933  000F52                     u1000:
   934  000F52                     
   935                           ; BSR set to: 0
   936                           ;LCD.h: 75: _data = _data>>0x04;
   937  000F52  398A               	swapf	LCD_DATA@_data& (0+255),w,b
   938  000F54  0B0F               	andlw	15
   939  000F56  6F8A               	movwf	LCD_DATA@_data& (0+255),b
   940  000F58                     
   941                           ; BSR set to: 0
   942                           ;LCD.h: 76: for(int x =0x00; x < 0x04; x-=-0x01){
   943  000F58  0E00               	movlw	0
   944  000F5A  6F8C               	movwf	(LCD_DATA@x+1)& (0+255),b
   945  000F5C  0E00               	movlw	0
   946  000F5E  6F8B               	movwf	LCD_DATA@x& (0+255),b
   947  000F60                     l1287:
   948                           
   949                           ; BSR set to: 0
   950                           ;LCD.h: 77: _4bit_[x] = (_data & (0x01<<x))>>x;
   951  000F60  C08B  F07B         	movff	LCD_DATA@x,??_LCD_DATA
   952  000F64  C08B  F07C         	movff	LCD_DATA@x,??_LCD_DATA+1
   953  000F68  0E01               	movlw	1
   954  000F6A  6F7D               	movwf	(??_LCD_DATA+2)& (0+255),b
   955  000F6C  2B7C               	incf	(??_LCD_DATA+1)& (0+255),f,b
   956  000F6E  EFBB  F007         	goto	u1014
   957  000F72                     u1015:
   958  000F72  90D8               	bcf	status,0,c
   959  000F74  377D               	rlcf	(??_LCD_DATA+2)& (0+255),f,b
   960  000F76                     u1014:
   961  000F76  2F7C               	decfsz	(??_LCD_DATA+1)& (0+255),f,b
   962  000F78  EFB9  F007         	goto	u1015
   963  000F7C  0100               	movlb	0	; () banked
   964  000F7E  517D               	movf	(??_LCD_DATA+2)& (0+255),w,b
   965  000F80  158A               	andwf	LCD_DATA@_data& (0+255),w,b
   966  000F82  6F7E               	movwf	(??_LCD_DATA+3)& (0+255),b
   967  000F84  2B7B               	incf	??_LCD_DATA& (0+255),f,b
   968  000F86  EFC7  F007         	goto	u1024
   969  000F8A                     u1025:
   970  000F8A  90D8               	bcf	status,0,c
   971  000F8C  337E               	rrcf	(??_LCD_DATA+3)& (0+255),f,b
   972  000F8E                     u1024:
   973  000F8E  2F7B               	decfsz	??_LCD_DATA& (0+255),f,b
   974  000F90  EFC5  F007         	goto	u1025
   975  000F94  0100               	movlb	0	; () banked
   976  000F96  517E               	movf	(??_LCD_DATA+3)& (0+255),w,b
   977  000F98  6F7F               	movwf	(??_LCD_DATA+4)& (0+255),b
   978  000F9A  6B80               	clrf	(??_LCD_DATA+5)& (0+255),b
   979  000F9C  90D8               	bcf	status,0,c
   980  000F9E  358B               	rlcf	LCD_DATA@x& (0+255),w,b
   981  000FA0  6ED9               	movwf	fsr2l,c
   982  000FA2  358C               	rlcf	(LCD_DATA@x+1)& (0+255),w,b
   983  000FA4  6EDA               	movwf	fsr2h,c
   984  000FA6  0E82               	movlw	low LCD_DATA@_4bit_
   985  000FA8  26D9               	addwf	fsr2l,f,c
   986  000FAA  0E00               	movlw	high LCD_DATA@_4bit_
   987  000FAC  22DA               	addwfc	fsr2h,f,c
   988  000FAE  C07F  FFDE         	movff	??_LCD_DATA+4,postinc2
   989  000FB2  C080  FFDD         	movff	??_LCD_DATA+5,postdec2
   990  000FB6                     
   991                           ; BSR set to: 0
   992  000FB6  4B8B               	infsnz	LCD_DATA@x& (0+255),f,b
   993  000FB8  2B8C               	incf	(LCD_DATA@x+1)& (0+255),f,b
   994  000FBA                     
   995                           ; BSR set to: 0
   996  000FBA  BF8C               	btfsc	(LCD_DATA@x+1)& (0+255),7,b
   997  000FBC  EFE9  F007         	goto	u1031
   998  000FC0  518C               	movf	(LCD_DATA@x+1)& (0+255),w,b
   999  000FC2  E109               	bnz	u1030
  1000  000FC4  0E04               	movlw	4
  1001  000FC6  5D8B               	subwf	LCD_DATA@x& (0+255),w,b
  1002  000FC8  A0D8               	btfss	status,0,c
  1003  000FCA  EFE9  F007         	goto	u1031
  1004  000FCE  EFEB  F007         	goto	u1030
  1005  000FD2                     u1031:
  1006  000FD2  EFB0  F007         	goto	l1287
  1007  000FD6                     u1030:
  1008  000FD6                     
  1009                           ; BSR set to: 0
  1010                           ;LCD.h: 78: };LCD.h: 79: TRISCbits.RC0 = (char)_4bit_[0x00];
  1011  000FD6  B182               	btfsc	LCD_DATA@_4bit_& (0+255),0,b
  1012  000FD8  D002               	bra	u1045
  1013  000FDA  9094               	bcf	148,0,c	;volatile
  1014  000FDC  D001               	bra	u1046
  1015  000FDE                     u1045:
  1016  000FDE  8094               	bsf	148,0,c	;volatile
  1017  000FE0                     u1046:
  1018                           
  1019                           ;LCD.h: 80: TRISCbits.RC1 = (char)_4bit_[0x01];
  1020  000FE0  0100               	movlb	0	; () banked
  1021  000FE2  B184               	btfsc	(LCD_DATA@_4bit_+2)& (0+255),0,b
  1022  000FE4  D002               	bra	u1055
  1023  000FE6  9294               	bcf	148,1,c	;volatile
  1024  000FE8  D001               	bra	u1056
  1025  000FEA                     u1055:
  1026  000FEA  8294               	bsf	148,1,c	;volatile
  1027  000FEC                     u1056:
  1028                           
  1029                           ;LCD.h: 81: TRISCbits.RC2 = (char)_4bit_[0x02];
  1030  000FEC  0100               	movlb	0	; () banked
  1031  000FEE  B186               	btfsc	(LCD_DATA@_4bit_+4)& (0+255),0,b
  1032  000FF0  D002               	bra	u1065
  1033  000FF2  9494               	bcf	148,2,c	;volatile
  1034  000FF4  D001               	bra	u1066
  1035  000FF6                     u1065:
  1036  000FF6  8494               	bsf	148,2,c	;volatile
  1037  000FF8                     u1066:
  1038                           
  1039                           ;LCD.h: 82: TRISCbits.RC3 = (char)_4bit_[0x03];
  1040  000FF8  0100               	movlb	0	; () banked
  1041  000FFA  B188               	btfsc	(LCD_DATA@_4bit_+6)& (0+255),0,b
  1042  000FFC  D002               	bra	u1075
  1043  000FFE  9694               	bcf	148,3,c	;volatile
  1044  001000  D001               	bra	u1076
  1045  001002                     u1075:
  1046  001002  8694               	bsf	148,3,c	;volatile
  1047  001004                     u1076:
  1048                           
  1049                           ;LCD.h: 83: PORTJbits.RJ1 = 0x01;
  1050  001004  8288               	bsf	136,1,c	;volatile
  1051                           
  1052                           ;LCD.h: 84: PORTBbits.RB3 = 0x00;
  1053  001006  9681               	bcf	129,3,c	;volatile
  1054                           
  1055                           ;LCD.h: 85: PORTJbits.RJ0 = 0x01;
  1056  001008  8088               	bsf	136,0,c	;volatile
  1057  00100A                     
  1058                           ;LCD.h: 86: _delay((unsigned long)((2)*(0x12BFCE0/4000.0)));
  1059  00100A  0E0D               	movlw	13
  1060  00100C  0100               	movlb	0	; () banked
  1061  00100E  6F7B               	movwf	??_LCD_DATA& (0+255),b
  1062  001010  0EC3               	movlw	195
  1063  001012                     u1997:
  1064  001012  2EE8               	decfsz	wreg,f,c
  1065  001014  D7FE               	bra	u1997
  1066  001016  2F7B               	decfsz	??_LCD_DATA& (0+255),f,b
  1067  001018  D7FC               	bra	u1997
  1068  00101A                     
  1069                           ;LCD.h: 87: PORTJbits.RJ0 = 0x00;
  1070  00101A  9088               	bcf	136,0,c	;volatile
  1071  00101C                     
  1072                           ;LCD.h: 89: _data = data;
  1073  00101C  C081  F08A         	movff	LCD_DATA@data,LCD_DATA@_data
  1074  001020                     
  1075                           ;LCD.h: 90: for(int x = 0x00; x< 0x04; x-=-0x01){
  1076  001020  0E00               	movlw	0
  1077  001022  0100               	movlb	0	; () banked
  1078  001024  6F8E               	movwf	(LCD_DATA@x_979+1)& (0+255),b
  1079  001026  0E00               	movlw	0
  1080  001028  6F8D               	movwf	LCD_DATA@x_979& (0+255),b
  1081  00102A                     l1305:
  1082                           
  1083                           ; BSR set to: 0
  1084                           ;LCD.h: 91: _4bit_[x] = (_data & (0x01<<x))>>x;
  1085  00102A  C08D  F07B         	movff	LCD_DATA@x_979,??_LCD_DATA
  1086  00102E  C08D  F07C         	movff	LCD_DATA@x_979,??_LCD_DATA+1
  1087  001032  0E01               	movlw	1
  1088  001034  6F7D               	movwf	(??_LCD_DATA+2)& (0+255),b
  1089  001036  2B7C               	incf	(??_LCD_DATA+1)& (0+255),f,b
  1090  001038  EF20  F008         	goto	u1084
  1091  00103C                     u1085:
  1092  00103C  90D8               	bcf	status,0,c
  1093  00103E  377D               	rlcf	(??_LCD_DATA+2)& (0+255),f,b
  1094  001040                     u1084:
  1095  001040  2F7C               	decfsz	(??_LCD_DATA+1)& (0+255),f,b
  1096  001042  EF1E  F008         	goto	u1085
  1097  001046  0100               	movlb	0	; () banked
  1098  001048  517D               	movf	(??_LCD_DATA+2)& (0+255),w,b
  1099  00104A  158A               	andwf	LCD_DATA@_data& (0+255),w,b
  1100  00104C  6F7E               	movwf	(??_LCD_DATA+3)& (0+255),b
  1101  00104E  2B7B               	incf	??_LCD_DATA& (0+255),f,b
  1102  001050  EF2C  F008         	goto	u1094
  1103  001054                     u1095:
  1104  001054  90D8               	bcf	status,0,c
  1105  001056  337E               	rrcf	(??_LCD_DATA+3)& (0+255),f,b
  1106  001058                     u1094:
  1107  001058  2F7B               	decfsz	??_LCD_DATA& (0+255),f,b
  1108  00105A  EF2A  F008         	goto	u1095
  1109  00105E  0100               	movlb	0	; () banked
  1110  001060  517E               	movf	(??_LCD_DATA+3)& (0+255),w,b
  1111  001062  6F7F               	movwf	(??_LCD_DATA+4)& (0+255),b
  1112  001064  6B80               	clrf	(??_LCD_DATA+5)& (0+255),b
  1113  001066  90D8               	bcf	status,0,c
  1114  001068  358D               	rlcf	LCD_DATA@x_979& (0+255),w,b
  1115  00106A  6ED9               	movwf	fsr2l,c
  1116  00106C  358E               	rlcf	(LCD_DATA@x_979+1)& (0+255),w,b
  1117  00106E  6EDA               	movwf	fsr2h,c
  1118  001070  0E82               	movlw	low LCD_DATA@_4bit_
  1119  001072  26D9               	addwf	fsr2l,f,c
  1120  001074  0E00               	movlw	high LCD_DATA@_4bit_
  1121  001076  22DA               	addwfc	fsr2h,f,c
  1122  001078  C07F  FFDE         	movff	??_LCD_DATA+4,postinc2
  1123  00107C  C080  FFDD         	movff	??_LCD_DATA+5,postdec2
  1124  001080                     
  1125                           ; BSR set to: 0
  1126  001080  4B8D               	infsnz	LCD_DATA@x_979& (0+255),f,b
  1127  001082  2B8E               	incf	(LCD_DATA@x_979+1)& (0+255),f,b
  1128  001084                     
  1129                           ; BSR set to: 0
  1130  001084  BF8E               	btfsc	(LCD_DATA@x_979+1)& (0+255),7,b
  1131  001086  EF4E  F008         	goto	u1101
  1132  00108A  518E               	movf	(LCD_DATA@x_979+1)& (0+255),w,b
  1133  00108C  E109               	bnz	u1100
  1134  00108E  0E04               	movlw	4
  1135  001090  5D8D               	subwf	LCD_DATA@x_979& (0+255),w,b
  1136  001092  A0D8               	btfss	status,0,c
  1137  001094  EF4E  F008         	goto	u1101
  1138  001098  EF50  F008         	goto	u1100
  1139  00109C                     u1101:
  1140  00109C  EF15  F008         	goto	l1305
  1141  0010A0                     u1100:
  1142  0010A0                     
  1143                           ; BSR set to: 0
  1144                           ;LCD.h: 92: };LCD.h: 93: TRISCbits.RC0 = (char)_4bit_[0x00];
  1145  0010A0  B182               	btfsc	LCD_DATA@_4bit_& (0+255),0,b
  1146  0010A2  D002               	bra	u1115
  1147  0010A4  9094               	bcf	148,0,c	;volatile
  1148  0010A6  D001               	bra	u1116
  1149  0010A8                     u1115:
  1150  0010A8  8094               	bsf	148,0,c	;volatile
  1151  0010AA                     u1116:
  1152                           
  1153                           ;LCD.h: 94: TRISCbits.RC1 = (char)_4bit_[0x01];
  1154  0010AA  0100               	movlb	0	; () banked
  1155  0010AC  B184               	btfsc	(LCD_DATA@_4bit_+2)& (0+255),0,b
  1156  0010AE  D002               	bra	u1125
  1157  0010B0  9294               	bcf	148,1,c	;volatile
  1158  0010B2  D001               	bra	u1126
  1159  0010B4                     u1125:
  1160  0010B4  8294               	bsf	148,1,c	;volatile
  1161  0010B6                     u1126:
  1162                           
  1163                           ;LCD.h: 95: TRISCbits.RC2 = (char)_4bit_[0x02];
  1164  0010B6  0100               	movlb	0	; () banked
  1165  0010B8  B186               	btfsc	(LCD_DATA@_4bit_+4)& (0+255),0,b
  1166  0010BA  D002               	bra	u1135
  1167  0010BC  9494               	bcf	148,2,c	;volatile
  1168  0010BE  D001               	bra	u1136
  1169  0010C0                     u1135:
  1170  0010C0  8494               	bsf	148,2,c	;volatile
  1171  0010C2                     u1136:
  1172                           
  1173                           ;LCD.h: 96: TRISCbits.RC3 = (char)_4bit_[0x03];
  1174  0010C2  0100               	movlb	0	; () banked
  1175  0010C4  B188               	btfsc	(LCD_DATA@_4bit_+6)& (0+255),0,b
  1176  0010C6  D002               	bra	u1145
  1177  0010C8  9694               	bcf	148,3,c	;volatile
  1178  0010CA  D001               	bra	u1146
  1179  0010CC                     u1145:
  1180  0010CC  8694               	bsf	148,3,c	;volatile
  1181  0010CE                     u1146:
  1182                           
  1183                           ;LCD.h: 97: PORTJbits.RJ1 = 0x01;
  1184  0010CE  8288               	bsf	136,1,c	;volatile
  1185                           
  1186                           ;LCD.h: 98: PORTBbits.RB3 = 0x00;
  1187  0010D0  9681               	bcf	129,3,c	;volatile
  1188                           
  1189                           ;LCD.h: 99: PORTJbits.RJ0 = 0x01;
  1190  0010D2  8088               	bsf	136,0,c	;volatile
  1191  0010D4                     
  1192                           ;LCD.h: 100: _delay((unsigned long)((2)*(0x12BFCE0/4000.0)));
  1193  0010D4  0E0D               	movlw	13
  1194  0010D6  0100               	movlb	0	; () banked
  1195  0010D8  6F7B               	movwf	??_LCD_DATA& (0+255),b
  1196  0010DA  0EC3               	movlw	195
  1197  0010DC                     u2007:
  1198  0010DC  2EE8               	decfsz	wreg,f,c
  1199  0010DE  D7FE               	bra	u2007
  1200  0010E0  2F7B               	decfsz	??_LCD_DATA& (0+255),f,b
  1201  0010E2  D7FC               	bra	u2007
  1202  0010E4                     
  1203                           ;LCD.h: 101: PORTJbits.RJ0 = 0x00;
  1204  0010E4  9088               	bcf	136,0,c	;volatile
  1205  0010E6                     l65:
  1206  0010E6  0012               	return		;funcret
  1207  0010E8                     __end_of_LCD_DATA:
  1208                           	callstack 0
  1209                           
  1210 ;; *************** function _LCD_20_LINE1 *****************
  1211 ;; Defined at:
  1212 ;;		line 164 in file "LCD.h"
  1213 ;; Parameters:    Size  Location     Type
  1214 ;;		None
  1215 ;; Auto vars:     Size  Location     Type
  1216 ;;		None
  1217 ;; Return value:  Size  Location     Type
  1218 ;;                  1    wreg      void 
  1219 ;; Registers used:
  1220 ;;		wreg, fsr2l, fsr2h, status,2, status,0, cstack
  1221 ;; Tracked objects:
  1222 ;;		On entry : 0/0
  1223 ;;		On exit  : 0/0
  1224 ;;		Unchanged: 0/0
  1225 ;; Data sizes:     COMRAM   BANK0   BANK1   BANK2   BANK3   BANK4   BANK5   BANK6   BANK7   BANK8   BANK9  BANK10  BANK1
      +1  BANK12  BANK13  BANK14
  1226 ;;      Params:         0       0       0       0       0       0       0       0       0       0       0       0       
      +0       0       0       0
  1227 ;;      Locals:         0       0       0       0       0       0       0       0       0       0       0       0       
      +0       0       0       0
  1228 ;;      Temps:          0       0       0       0       0       0       0       0       0       0       0       0       
      +0       0       0       0
  1229 ;;      Totals:         0       0       0       0       0       0       0       0       0       0       0       0       
      +0       0       0       0
  1230 ;;Total ram usage:        0 bytes
  1231 ;; Hardware stack levels used: 1
  1232 ;; Hardware stack levels required when called: 7
  1233 ;; This function calls:
  1234 ;;		_LCD_INSTRUCTION_4BIT
  1235 ;; This function is called by:
  1236 ;;		_main
  1237 ;; This function uses a non-reentrant model
  1238 ;;
  1239                           
  1240                           	psect	text6
  1241  001C32                     __ptext6:
  1242                           	callstack 0
  1243  001C32                     _LCD_20_LINE1:
  1244                           	callstack 23
  1245  001C32  0E80               	movlw	128
  1246  001C34  EC4E  F009         	call	_LCD_INSTRUCTION_4BIT
  1247  001C38  0012               	return		;funcret
  1248  001C3A                     __end_of_LCD_20_LINE1:
  1249                           	callstack 0
  1250                           
  1251 ;; *************** function _LCD_INSTRUCTION_4BIT *****************
  1252 ;; Defined at:
  1253 ;;		line 106 in file "LCD.h"
  1254 ;; Parameters:    Size  Location     Type
  1255 ;;  instruction     1    wreg     unsigned char 
  1256 ;; Auto vars:     Size  Location     Type
  1257 ;;  instruction     1   31[BANK0 ] unsigned char 
  1258 ;;  x               2   43[BANK0 ] int 
  1259 ;;  x               2   41[BANK0 ] int 
  1260 ;;  _4bit_          8   32[BANK0 ] int [4]
  1261 ;;  data            1   40[BANK0 ] unsigned char 
  1262 ;; Return value:  Size  Location     Type
  1263 ;;                  1    wreg      void 
  1264 ;; Registers used:
  1265 ;;		wreg, fsr2l, fsr2h, status,2, status,0
  1266 ;; Tracked objects:
  1267 ;;		On entry : 0/0
  1268 ;;		On exit  : 0/0
  1269 ;;		Unchanged: 0/0
  1270 ;; Data sizes:     COMRAM   BANK0   BANK1   BANK2   BANK3   BANK4   BANK5   BANK6   BANK7   BANK8   BANK9  BANK10  BANK1
      +1  BANK12  BANK13  BANK14
  1271 ;;      Params:         0       0       0       0       0       0       0       0       0       0       0       0       
      +0       0       0       0
  1272 ;;      Locals:         0      14       0       0       0       0       0       0       0       0       0       0       
      +0       0       0       0
  1273 ;;      Temps:          0       6       0       0       0       0       0       0       0       0       0       0       
      +0       0       0       0
  1274 ;;      Totals:         0      20       0       0       0       0       0       0       0       0       0       0       
      +0       0       0       0
  1275 ;;Total ram usage:       20 bytes
  1276 ;; Hardware stack levels used: 1
  1277 ;; Hardware stack levels required when called: 6
  1278 ;; This function calls:
  1279 ;;		Nothing
  1280 ;; This function is called by:
  1281 ;;		_LCD_INITIALIZE_4BIT
  1282 ;;		_LCD_20_LINE1
  1283 ;;		_LCD_CLEAR
  1284 ;;		_LCD_20_LINE4
  1285 ;;		_LCD_16_LINE1
  1286 ;;		_LCD_16_LINE2
  1287 ;; This function uses a non-reentrant model
  1288 ;;
  1289                           
  1290                           	psect	text7
  1291  00129C                     __ptext7:
  1292                           	callstack 0
  1293  00129C                     _LCD_INSTRUCTION_4BIT:
  1294                           	callstack 23
  1295                           
  1296                           ;incstack = 0
  1297                           ;LCD_INSTRUCTION_4BIT@instruction stored from wreg
  1298  00129C  0100               	movlb	0	; () banked
  1299  00129E  6F7F               	movwf	LCD_INSTRUCTION_4BIT@instruction& (0+255),b
  1300  0012A0                     
  1301                           ;LCD.h: 107: int _4bit_[0x04];;LCD.h: 108: unsigned char data = instruction;
  1302  0012A0  C07F  F088         	movff	LCD_INSTRUCTION_4BIT@instruction,LCD_INSTRUCTION_4BIT@data
  1303  0012A4                     
  1304                           ;LCD.h: 109: data = data>>0x04;
  1305  0012A4  0100               	movlb	0	; () banked
  1306  0012A6  3988               	swapf	LCD_INSTRUCTION_4BIT@data& (0+255),w,b
  1307  0012A8  0B0F               	andlw	15
  1308  0012AA  6F88               	movwf	LCD_INSTRUCTION_4BIT@data& (0+255),b
  1309  0012AC                     
  1310                           ; BSR set to: 0
  1311                           ;LCD.h: 110: for(int x =0x00; x < 0x04; x-=-0x01){
  1312  0012AC  0E00               	movlw	0
  1313  0012AE  6F8A               	movwf	(LCD_INSTRUCTION_4BIT@x+1)& (0+255),b
  1314  0012B0  0E00               	movlw	0
  1315  0012B2  6F89               	movwf	LCD_INSTRUCTION_4BIT@x& (0+255),b
  1316  0012B4                     l1325:
  1317                           
  1318                           ; BSR set to: 0
  1319                           ;LCD.h: 111: _4bit_[x] = (data & (0x01<<x))>>x;
  1320  0012B4  C089  F079         	movff	LCD_INSTRUCTION_4BIT@x,??_LCD_INSTRUCTION_4BIT
  1321  0012B8  C089  F07A         	movff	LCD_INSTRUCTION_4BIT@x,??_LCD_INSTRUCTION_4BIT+1
  1322  0012BC  0E01               	movlw	1
  1323  0012BE  6F7B               	movwf	(??_LCD_INSTRUCTION_4BIT+2)& (0+255),b
  1324  0012C0  2B7A               	incf	(??_LCD_INSTRUCTION_4BIT+1)& (0+255),f,b
  1325  0012C2  EF65  F009         	goto	u1154
  1326  0012C6                     u1155:
  1327  0012C6  90D8               	bcf	status,0,c
  1328  0012C8  377B               	rlcf	(??_LCD_INSTRUCTION_4BIT+2)& (0+255),f,b
  1329  0012CA                     u1154:
  1330  0012CA  2F7A               	decfsz	(??_LCD_INSTRUCTION_4BIT+1)& (0+255),f,b
  1331  0012CC  EF63  F009         	goto	u1155
  1332  0012D0  0100               	movlb	0	; () banked
  1333  0012D2  517B               	movf	(??_LCD_INSTRUCTION_4BIT+2)& (0+255),w,b
  1334  0012D4  1588               	andwf	LCD_INSTRUCTION_4BIT@data& (0+255),w,b
  1335  0012D6  6F7C               	movwf	(??_LCD_INSTRUCTION_4BIT+3)& (0+255),b
  1336  0012D8  2B79               	incf	??_LCD_INSTRUCTION_4BIT& (0+255),f,b
  1337  0012DA  EF71  F009         	goto	u1164
  1338  0012DE                     u1165:
  1339  0012DE  90D8               	bcf	status,0,c
  1340  0012E0  337C               	rrcf	(??_LCD_INSTRUCTION_4BIT+3)& (0+255),f,b
  1341  0012E2                     u1164:
  1342  0012E2  2F79               	decfsz	??_LCD_INSTRUCTION_4BIT& (0+255),f,b
  1343  0012E4  EF6F  F009         	goto	u1165
  1344  0012E8  0100               	movlb	0	; () banked
  1345  0012EA  517C               	movf	(??_LCD_INSTRUCTION_4BIT+3)& (0+255),w,b
  1346  0012EC  6F7D               	movwf	(??_LCD_INSTRUCTION_4BIT+4)& (0+255),b
  1347  0012EE  6B7E               	clrf	(??_LCD_INSTRUCTION_4BIT+5)& (0+255),b
  1348  0012F0  90D8               	bcf	status,0,c
  1349  0012F2  3589               	rlcf	LCD_INSTRUCTION_4BIT@x& (0+255),w,b
  1350  0012F4  6ED9               	movwf	fsr2l,c
  1351  0012F6  358A               	rlcf	(LCD_INSTRUCTION_4BIT@x+1)& (0+255),w,b
  1352  0012F8  6EDA               	movwf	fsr2h,c
  1353  0012FA  0E80               	movlw	low LCD_INSTRUCTION_4BIT@_4bit_
  1354  0012FC  26D9               	addwf	fsr2l,f,c
  1355  0012FE  0E00               	movlw	high LCD_INSTRUCTION_4BIT@_4bit_
  1356  001300  22DA               	addwfc	fsr2h,f,c
  1357  001302  C07D  FFDE         	movff	??_LCD_INSTRUCTION_4BIT+4,postinc2
  1358  001306  C07E  FFDD         	movff	??_LCD_INSTRUCTION_4BIT+5,postdec2
  1359  00130A                     
  1360                           ; BSR set to: 0
  1361  00130A  4B89               	infsnz	LCD_INSTRUCTION_4BIT@x& (0+255),f,b
  1362  00130C  2B8A               	incf	(LCD_INSTRUCTION_4BIT@x+1)& (0+255),f,b
  1363  00130E                     
  1364                           ; BSR set to: 0
  1365  00130E  BF8A               	btfsc	(LCD_INSTRUCTION_4BIT@x+1)& (0+255),7,b
  1366  001310  EF93  F009         	goto	u1171
  1367  001314  518A               	movf	(LCD_INSTRUCTION_4BIT@x+1)& (0+255),w,b
  1368  001316  E109               	bnz	u1170
  1369  001318  0E04               	movlw	4
  1370  00131A  5D89               	subwf	LCD_INSTRUCTION_4BIT@x& (0+255),w,b
  1371  00131C  A0D8               	btfss	status,0,c
  1372  00131E  EF93  F009         	goto	u1171
  1373  001322  EF95  F009         	goto	u1170
  1374  001326                     u1171:
  1375  001326  EF5A  F009         	goto	l1325
  1376  00132A                     u1170:
  1377  00132A                     
  1378                           ; BSR set to: 0
  1379                           ;LCD.h: 112: };LCD.h: 113: TRISCbits.RC0 = (char)_4bit_[0x00];
  1380  00132A  B180               	btfsc	LCD_INSTRUCTION_4BIT@_4bit_& (0+255),0,b
  1381  00132C  D002               	bra	u1185
  1382  00132E  9094               	bcf	148,0,c	;volatile
  1383  001330  D001               	bra	u1186
  1384  001332                     u1185:
  1385  001332  8094               	bsf	148,0,c	;volatile
  1386  001334                     u1186:
  1387                           
  1388                           ;LCD.h: 114: TRISCbits.RC1 = (char)_4bit_[0x01];
  1389  001334  0100               	movlb	0	; () banked
  1390  001336  B182               	btfsc	(LCD_INSTRUCTION_4BIT@_4bit_+2)& (0+255),0,b
  1391  001338  D002               	bra	u1195
  1392  00133A  9294               	bcf	148,1,c	;volatile
  1393  00133C  D001               	bra	u1196
  1394  00133E                     u1195:
  1395  00133E  8294               	bsf	148,1,c	;volatile
  1396  001340                     u1196:
  1397                           
  1398                           ;LCD.h: 115: TRISCbits.RC2 = (char)_4bit_[0x02];
  1399  001340  0100               	movlb	0	; () banked
  1400  001342  B184               	btfsc	(LCD_INSTRUCTION_4BIT@_4bit_+4)& (0+255),0,b
  1401  001344  D002               	bra	u1205
  1402  001346  9494               	bcf	148,2,c	;volatile
  1403  001348  D001               	bra	u1206
  1404  00134A                     u1205:
  1405  00134A  8494               	bsf	148,2,c	;volatile
  1406  00134C                     u1206:
  1407                           
  1408                           ;LCD.h: 116: TRISCbits.RC3 = (char)_4bit_[0x03];
  1409  00134C  0100               	movlb	0	; () banked
  1410  00134E  B186               	btfsc	(LCD_INSTRUCTION_4BIT@_4bit_+6)& (0+255),0,b
  1411  001350  D002               	bra	u1215
  1412  001352  9694               	bcf	148,3,c	;volatile
  1413  001354  D001               	bra	u1216
  1414  001356                     u1215:
  1415  001356  8694               	bsf	148,3,c	;volatile
  1416  001358                     u1216:
  1417                           
  1418                           ;LCD.h: 117: PORTJbits.RJ1 = 0x00;
  1419  001358  9288               	bcf	136,1,c	;volatile
  1420                           
  1421                           ;LCD.h: 118: PORTBbits.RB3 = 0x00;
  1422  00135A  9681               	bcf	129,3,c	;volatile
  1423                           
  1424                           ;LCD.h: 119: PORTJbits.RJ0 = 0x01;
  1425  00135C  8088               	bsf	136,0,c	;volatile
  1426  00135E                     
  1427                           ;LCD.h: 120: _delay((unsigned long)((2)*(0x12BFCE0/4000.0)));
  1428  00135E  0E0D               	movlw	13
  1429  001360  0100               	movlb	0	; () banked
  1430  001362  6F79               	movwf	??_LCD_INSTRUCTION_4BIT& (0+255),b
  1431  001364  0EC3               	movlw	195
  1432  001366                     u2017:
  1433  001366  2EE8               	decfsz	wreg,f,c
  1434  001368  D7FE               	bra	u2017
  1435  00136A  2F79               	decfsz	??_LCD_INSTRUCTION_4BIT& (0+255),f,b
  1436  00136C  D7FC               	bra	u2017
  1437  00136E                     
  1438                           ;LCD.h: 121: PORTJbits.RJ0 = 0x00;
  1439  00136E  9088               	bcf	136,0,c	;volatile
  1440  001370                     
  1441                           ;LCD.h: 123: data = instruction;
  1442  001370  C07F  F088         	movff	LCD_INSTRUCTION_4BIT@instruction,LCD_INSTRUCTION_4BIT@data
  1443  001374                     
  1444                           ;LCD.h: 124: for(int x = 0x00; x< 0x04; x-=-0x01){
  1445  001374  0E00               	movlw	0
  1446  001376  0100               	movlb	0	; () banked
  1447  001378  6F8C               	movwf	(LCD_INSTRUCTION_4BIT@x_985+1)& (0+255),b
  1448  00137A  0E00               	movlw	0
  1449  00137C  6F8B               	movwf	LCD_INSTRUCTION_4BIT@x_985& (0+255),b
  1450  00137E                     l1343:
  1451                           
  1452                           ; BSR set to: 0
  1453                           ;LCD.h: 125: _4bit_[x] = (data & (0x01<<x))>>x;
  1454  00137E  C08B  F079         	movff	LCD_INSTRUCTION_4BIT@x_985,??_LCD_INSTRUCTION_4BIT
  1455  001382  C08B  F07A         	movff	LCD_INSTRUCTION_4BIT@x_985,??_LCD_INSTRUCTION_4BIT+1
  1456  001386  0E01               	movlw	1
  1457  001388  6F7B               	movwf	(??_LCD_INSTRUCTION_4BIT+2)& (0+255),b
  1458  00138A  2B7A               	incf	(??_LCD_INSTRUCTION_4BIT+1)& (0+255),f,b
  1459  00138C  EFCA  F009         	goto	u1224
  1460  001390                     u1225:
  1461  001390  90D8               	bcf	status,0,c
  1462  001392  377B               	rlcf	(??_LCD_INSTRUCTION_4BIT+2)& (0+255),f,b
  1463  001394                     u1224:
  1464  001394  2F7A               	decfsz	(??_LCD_INSTRUCTION_4BIT+1)& (0+255),f,b
  1465  001396  EFC8  F009         	goto	u1225
  1466  00139A  0100               	movlb	0	; () banked
  1467  00139C  517B               	movf	(??_LCD_INSTRUCTION_4BIT+2)& (0+255),w,b
  1468  00139E  1588               	andwf	LCD_INSTRUCTION_4BIT@data& (0+255),w,b
  1469  0013A0  6F7C               	movwf	(??_LCD_INSTRUCTION_4BIT+3)& (0+255),b
  1470  0013A2  2B79               	incf	??_LCD_INSTRUCTION_4BIT& (0+255),f,b
  1471  0013A4  EFD6  F009         	goto	u1234
  1472  0013A8                     u1235:
  1473  0013A8  90D8               	bcf	status,0,c
  1474  0013AA  337C               	rrcf	(??_LCD_INSTRUCTION_4BIT+3)& (0+255),f,b
  1475  0013AC                     u1234:
  1476  0013AC  2F79               	decfsz	??_LCD_INSTRUCTION_4BIT& (0+255),f,b
  1477  0013AE  EFD4  F009         	goto	u1235
  1478  0013B2  0100               	movlb	0	; () banked
  1479  0013B4  517C               	movf	(??_LCD_INSTRUCTION_4BIT+3)& (0+255),w,b
  1480  0013B6  6F7D               	movwf	(??_LCD_INSTRUCTION_4BIT+4)& (0+255),b
  1481  0013B8  6B7E               	clrf	(??_LCD_INSTRUCTION_4BIT+5)& (0+255),b
  1482  0013BA  90D8               	bcf	status,0,c
  1483  0013BC  358B               	rlcf	LCD_INSTRUCTION_4BIT@x_985& (0+255),w,b
  1484  0013BE  6ED9               	movwf	fsr2l,c
  1485  0013C0  358C               	rlcf	(LCD_INSTRUCTION_4BIT@x_985+1)& (0+255),w,b
  1486  0013C2  6EDA               	movwf	fsr2h,c
  1487  0013C4  0E80               	movlw	low LCD_INSTRUCTION_4BIT@_4bit_
  1488  0013C6  26D9               	addwf	fsr2l,f,c
  1489  0013C8  0E00               	movlw	high LCD_INSTRUCTION_4BIT@_4bit_
  1490  0013CA  22DA               	addwfc	fsr2h,f,c
  1491  0013CC  C07D  FFDE         	movff	??_LCD_INSTRUCTION_4BIT+4,postinc2
  1492  0013D0  C07E  FFDD         	movff	??_LCD_INSTRUCTION_4BIT+5,postdec2
  1493  0013D4                     
  1494                           ; BSR set to: 0
  1495  0013D4  4B8B               	infsnz	LCD_INSTRUCTION_4BIT@x_985& (0+255),f,b
  1496  0013D6  2B8C               	incf	(LCD_INSTRUCTION_4BIT@x_985+1)& (0+255),f,b
  1497  0013D8                     
  1498                           ; BSR set to: 0
  1499  0013D8  BF8C               	btfsc	(LCD_INSTRUCTION_4BIT@x_985+1)& (0+255),7,b
  1500  0013DA  EFF8  F009         	goto	u1241
  1501  0013DE  518C               	movf	(LCD_INSTRUCTION_4BIT@x_985+1)& (0+255),w,b
  1502  0013E0  E109               	bnz	u1240
  1503  0013E2  0E04               	movlw	4
  1504  0013E4  5D8B               	subwf	LCD_INSTRUCTION_4BIT@x_985& (0+255),w,b
  1505  0013E6  A0D8               	btfss	status,0,c
  1506  0013E8  EFF8  F009         	goto	u1241
  1507  0013EC  EFFA  F009         	goto	u1240
  1508  0013F0                     u1241:
  1509  0013F0  EFBF  F009         	goto	l1343
  1510  0013F4                     u1240:
  1511  0013F4                     
  1512                           ; BSR set to: 0
  1513                           ;LCD.h: 126: };LCD.h: 127: TRISCbits.RC0 = (char)_4bit_[0x00];
  1514  0013F4  B180               	btfsc	LCD_INSTRUCTION_4BIT@_4bit_& (0+255),0,b
  1515  0013F6  D002               	bra	u1255
  1516  0013F8  9094               	bcf	148,0,c	;volatile
  1517  0013FA  D001               	bra	u1256
  1518  0013FC                     u1255:
  1519  0013FC  8094               	bsf	148,0,c	;volatile
  1520  0013FE                     u1256:
  1521                           
  1522                           ;LCD.h: 128: TRISCbits.RC1 = (char)_4bit_[0x01];
  1523  0013FE  0100               	movlb	0	; () banked
  1524  001400  B182               	btfsc	(LCD_INSTRUCTION_4BIT@_4bit_+2)& (0+255),0,b
  1525  001402  D002               	bra	u1265
  1526  001404  9294               	bcf	148,1,c	;volatile
  1527  001406  D001               	bra	u1266
  1528  001408                     u1265:
  1529  001408  8294               	bsf	148,1,c	;volatile
  1530  00140A                     u1266:
  1531                           
  1532                           ;LCD.h: 129: TRISCbits.RC2 = (char)_4bit_[0x02];
  1533  00140A  0100               	movlb	0	; () banked
  1534  00140C  B184               	btfsc	(LCD_INSTRUCTION_4BIT@_4bit_+4)& (0+255),0,b
  1535  00140E  D002               	bra	u1275
  1536  001410  9494               	bcf	148,2,c	;volatile
  1537  001412  D001               	bra	u1276
  1538  001414                     u1275:
  1539  001414  8494               	bsf	148,2,c	;volatile
  1540  001416                     u1276:
  1541                           
  1542                           ;LCD.h: 130: TRISCbits.RC3 = (char)_4bit_[0x03];
  1543  001416  0100               	movlb	0	; () banked
  1544  001418  B186               	btfsc	(LCD_INSTRUCTION_4BIT@_4bit_+6)& (0+255),0,b
  1545  00141A  D002               	bra	u1285
  1546  00141C  9694               	bcf	148,3,c	;volatile
  1547  00141E  D001               	bra	u1286
  1548  001420                     u1285:
  1549  001420  8694               	bsf	148,3,c	;volatile
  1550  001422                     u1286:
  1551                           
  1552                           ;LCD.h: 131: PORTJbits.RJ1 = 0x00;
  1553  001422  9288               	bcf	136,1,c	;volatile
  1554                           
  1555                           ;LCD.h: 132: PORTBbits.RB3 = 0x00;
  1556  001424  9681               	bcf	129,3,c	;volatile
  1557                           
  1558                           ;LCD.h: 133: PORTJbits.RJ0 = 0x01;
  1559  001426  8088               	bsf	136,0,c	;volatile
  1560  001428                     
  1561                           ;LCD.h: 134: _delay((unsigned long)((2)*(0x12BFCE0/4000.0)));
  1562  001428  0E0D               	movlw	13
  1563  00142A  0100               	movlb	0	; () banked
  1564  00142C  6F79               	movwf	??_LCD_INSTRUCTION_4BIT& (0+255),b
  1565  00142E  0EC3               	movlw	195
  1566  001430                     u2027:
  1567  001430  2EE8               	decfsz	wreg,f,c
  1568  001432  D7FE               	bra	u2027
  1569  001434  2F79               	decfsz	??_LCD_INSTRUCTION_4BIT& (0+255),f,b
  1570  001436  D7FC               	bra	u2027
  1571  001438                     
  1572                           ;LCD.h: 135: PORTJbits.RJ0 = 0x00;
  1573  001438  9088               	bcf	136,0,c	;volatile
  1574  00143A  0012               	return		;funcret
  1575  00143C                     __end_of_LCD_INSTRUCTION_4BIT:
  1576                           	callstack 0
  1577                           
  1578 ;; *************** function _Interrupt_init *****************
  1579 ;; Defined at:
  1580 ;;		line 108 in file "main.c"
  1581 ;; Parameters:    Size  Location     Type
  1582 ;;		None
  1583 ;; Auto vars:     Size  Location     Type
  1584 ;;		None
  1585 ;; Return value:  Size  Location     Type
  1586 ;;                  1    wreg      void 
  1587 ;; Registers used:
  1588 ;;		wreg
  1589 ;; Tracked objects:
  1590 ;;		On entry : 0/0
  1591 ;;		On exit  : 0/0
  1592 ;;		Unchanged: 0/0
  1593 ;; Data sizes:     COMRAM   BANK0   BANK1   BANK2   BANK3   BANK4   BANK5   BANK6   BANK7   BANK8   BANK9  BANK10  BANK1
      +1  BANK12  BANK13  BANK14
  1594 ;;      Params:         0       0       0       0       0       0       0       0       0       0       0       0       
      +0       0       0       0
  1595 ;;      Locals:         0       0       0       0       0       0       0       0       0       0       0       0       
      +0       0       0       0
  1596 ;;      Temps:          0       0       0       0       0       0       0       0       0       0       0       0       
      +0       0       0       0
  1597 ;;      Totals:         0       0       0       0       0       0       0       0       0       0       0       0       
      +0       0       0       0
  1598 ;;Total ram usage:        0 bytes
  1599 ;; Hardware stack levels used: 1
  1600 ;; Hardware stack levels required when called: 6
  1601 ;; This function calls:
  1602 ;;		Nothing
  1603 ;; This function is called by:
  1604 ;;		_main
  1605 ;; This function uses a non-reentrant model
  1606 ;;
  1607                           
  1608                           	psect	text8
  1609  001BDA                     __ptext8:
  1610                           	callstack 0
  1611  001BDA                     _Interrupt_init:
  1612                           	callstack 24
  1613  001BDA                     
  1614                           ;main.c: 110: INTCON2bits.INTEDG0 = 0x00;
  1615  001BDA  9CF1               	bcf	241,6,c	;volatile
  1616                           
  1617                           ;main.c: 111: INTCON2bits.nRBPU = 0x00;
  1618  001BDC  9EF1               	bcf	241,7,c	;volatile
  1619                           
  1620                           ;main.c: 112: INTCONbits.GIE = 0x01;
  1621  001BDE  8EF2               	bsf	242,7,c	;volatile
  1622                           
  1623                           ;main.c: 113: INTCONbits.PEIE = 0x01;
  1624  001BE0  8CF2               	bsf	242,6,c	;volatile
  1625                           
  1626                           ;main.c: 114: INTCONbits.INT0E = 0x01;
  1627  001BE2  88F2               	bsf	242,4,c	;volatile
  1628  001BE4                     
  1629                           ;main.c: 115: INTCONbits.INT0IF == 0x00;
  1630  001BE4  50F2               	movf	242,w,c	;volatile
  1631  001BE6                     
  1632                           ;main.c: 117: INTCON2bits.INTEDG1 = 0x00;
  1633  001BE6  9AF1               	bcf	241,5,c	;volatile
  1634  001BE8                     
  1635                           ;main.c: 118: INTCON3bits.INT1IE = 0x01;
  1636  001BE8  86F0               	bsf	240,3,c	;volatile
  1637  001BEA                     
  1638                           ;main.c: 119: INTCON3bits.INT1IP = 0x01;
  1639  001BEA  8CF0               	bsf	240,6,c	;volatile
  1640  001BEC                     
  1641                           ;main.c: 120: INTCON3bits.INT1IF = 0x00;
  1642  001BEC  90F0               	bcf	240,0,c	;volatile
  1643  001BEE                     
  1644                           ;main.c: 122: INTCON2bits.INTEDG2 = 0x00;
  1645  001BEE  98F1               	bcf	241,4,c	;volatile
  1646  001BF0                     
  1647                           ;main.c: 123: INTCON3bits.INT2IE = 0x01;
  1648  001BF0  88F0               	bsf	240,4,c	;volatile
  1649  001BF2                     
  1650                           ;main.c: 124: INTCON3bits.INT2IP = 0x00;
  1651  001BF2  9EF0               	bcf	240,7,c	;volatile
  1652                           
  1653                           ;main.c: 125: INTCON3bits.INT3IF == 0x00;
  1654  001BF4  50F0               	movf	240,w,c	;volatile
  1655  001BF6                     
  1656                           ;main.c: 127: RCONbits.IPEN = 0x01;
  1657  001BF6  8ED0               	bsf	208,7,c	;volatile
  1658  001BF8                     
  1659                           ;main.c: 128: INTCONbits.GIEH = 0x01;
  1660  001BF8  8EF2               	bsf	242,7,c	;volatile
  1661  001BFA                     
  1662                           ;main.c: 129: INTCONbits.GIEL = 0x01;
  1663  001BFA  8CF2               	bsf	242,6,c	;volatile
  1664  001BFC                     
  1665                           ;main.c: 130: INTCON3bits.INT1IP = 0x00;
  1666  001BFC  9CF0               	bcf	240,6,c	;volatile
  1667  001BFE  0012               	return		;funcret
  1668  001C00                     __end_of_Interrupt_init:
  1669                           	callstack 0
  1670                           
  1671 ;; *************** function _Blink_LED *****************
  1672 ;; Defined at:
  1673 ;;		line 156 in file "main.c"
  1674 ;; Parameters:    Size  Location     Type
  1675 ;;		None
  1676 ;; Auto vars:     Size  Location     Type
  1677 ;;		None
  1678 ;; Return value:  Size  Location     Type
  1679 ;;                  1    wreg      void 
  1680 ;; Registers used:
  1681 ;;		wreg
  1682 ;; Tracked objects:
  1683 ;;		On entry : 0/0
  1684 ;;		On exit  : 0/0
  1685 ;;		Unchanged: 0/0
  1686 ;; Data sizes:     COMRAM   BANK0   BANK1   BANK2   BANK3   BANK4   BANK5   BANK6   BANK7   BANK8   BANK9  BANK10  BANK1
      +1  BANK12  BANK13  BANK14
  1687 ;;      Params:         0       0       0       0       0       0       0       0       0       0       0       0       
      +0       0       0       0
  1688 ;;      Locals:         0       0       0       0       0       0       0       0       0       0       0       0       
      +0       0       0       0
  1689 ;;      Temps:          0       2       0       0       0       0       0       0       0       0       0       0       
      +0       0       0       0
  1690 ;;      Totals:         0       2       0       0       0       0       0       0       0       0       0       0       
      +0       0       0       0
  1691 ;;Total ram usage:        2 bytes
  1692 ;; Hardware stack levels used: 1
  1693 ;; Hardware stack levels required when called: 6
  1694 ;; This function calls:
  1695 ;;		Nothing
  1696 ;; This function is called by:
  1697 ;;		_main
  1698 ;; This function uses a non-reentrant model
  1699 ;;
  1700                           
  1701                           	psect	text9
  1702  001B04                     __ptext9:
  1703                           	callstack 0
  1704  001B04                     _Blink_LED:
  1705                           	callstack 24
  1706  001B04                     
  1707                           ;main.c: 157: PORTDbits.RD0 = 0x01;
  1708  001B04  8083               	bsf	131,0,c	;volatile
  1709  001B06                     
  1710                           ;main.c: 158: _delay((unsigned long)((100)*(0x12BFCE0/4000.0)));
  1711  001B06  0E03               	movlw	3
  1712  001B08  0100               	movlb	0	; () banked
  1713  001B0A  6F7A               	movwf	(??_Blink_LED+1)& (0+255),b
  1714  001B0C  0E7F               	movlw	127
  1715  001B0E  6F79               	movwf	??_Blink_LED& (0+255),b
  1716  001B10  0E4B               	movlw	75
  1717  001B12                     u2037:
  1718  001B12  2EE8               	decfsz	wreg,f,c
  1719  001B14  D7FE               	bra	u2037
  1720  001B16  2F79               	decfsz	??_Blink_LED& (0+255),f,b
  1721  001B18  D7FC               	bra	u2037
  1722  001B1A  2F7A               	decfsz	(??_Blink_LED+1)& (0+255),f,b
  1723  001B1C  D7FA               	bra	u2037
  1724  001B1E  D000               	nop2	
  1725  001B20                     
  1726                           ;main.c: 159: PORTDbits.RD0 = 0x00;
  1727  001B20  9083               	bcf	131,0,c	;volatile
  1728                           
  1729                           ;main.c: 160: _delay((unsigned long)((100)*(0x12BFCE0/4000.0)));
  1730  001B22  0E03               	movlw	3
  1731  001B24  0100               	movlb	0	; () banked
  1732  001B26  6F7A               	movwf	(??_Blink_LED+1)& (0+255),b
  1733  001B28  0E7F               	movlw	127
  1734  001B2A  6F79               	movwf	??_Blink_LED& (0+255),b
  1735  001B2C  0E4B               	movlw	75
  1736  001B2E                     u2047:
  1737  001B2E  2EE8               	decfsz	wreg,f,c
  1738  001B30  D7FE               	bra	u2047
  1739  001B32  2F79               	decfsz	??_Blink_LED& (0+255),f,b
  1740  001B34  D7FC               	bra	u2047
  1741  001B36  2F7A               	decfsz	(??_Blink_LED+1)& (0+255),f,b
  1742  001B38  D7FA               	bra	u2047
  1743  001B3A  D000               	nop2	
  1744  001B3C  0012               	return		;funcret
  1745  001B3E                     __end_of_Blink_LED:
  1746                           	callstack 0
  1747                           
  1748 ;; *************** function _ISR_2 *****************
  1749 ;; Defined at:
  1750 ;;		line 145 in file "main.c"
  1751 ;; Parameters:    Size  Location     Type
  1752 ;;		None
  1753 ;; Auto vars:     Size  Location     Type
  1754 ;;		None
  1755 ;; Return value:  Size  Location     Type
  1756 ;;                  1    wreg      void 
  1757 ;; Registers used:
  1758 ;;		wreg, fsr2l, fsr2h, status,2, status,0, tblptrl, tblptrh, tblptru, cstack
  1759 ;; Tracked objects:
  1760 ;;		On entry : 0/0
  1761 ;;		On exit  : 0/0
  1762 ;;		Unchanged: 0/0
  1763 ;; Data sizes:     COMRAM   BANK0   BANK1   BANK2   BANK3   BANK4   BANK5   BANK6   BANK7   BANK8   BANK9  BANK10  BANK1
      +1  BANK12  BANK13  BANK14
  1764 ;;      Params:         0       0       0       0       0       0       0       0       0       0       0       0       
      +0       0       0       0
  1765 ;;      Locals:         0       1       0       0       0       0       0       0       0       0       0       0       
      +0       0       0       0
  1766 ;;      Temps:          0      10       0       0       0       0       0       0       0       0       0       0       
      +0       0       0       0
  1767 ;;      Totals:         0      11       0       0       0       0       0       0       0       0       0       0       
      +0       0       0       0
  1768 ;;Total ram usage:       11 bytes
  1769 ;; Hardware stack levels used: 1
  1770 ;; Hardware stack levels required when called: 5
  1771 ;; This function calls:
  1772 ;;		_LCD_20_LINE3
  1773 ;;		i1_LCD_DISPLAY
  1774 ;; This function is called by:
  1775 ;;		Interrupt level 1
  1776 ;; This function uses a non-reentrant model
  1777 ;;
  1778                           
  1779                           	psect	intcodelo
  1780  000018                     __pintcodelo:
  1781                           	callstack 0
  1782  000018                     _ISR_2:
  1783                           	callstack 23
  1784                           
  1785                           ;incstack = 0
  1786  000018  803A               	bsf	int$flags,0,c	;set compiler interrupt flag (level 1)
  1787  00001A  CFD8 F06F          	movff	status,??_ISR_2+1
  1788  00001E  CFE8 F070          	movff	wreg,??_ISR_2+2
  1789  000022  CFE0 F071          	movff	bsr,??_ISR_2+3
  1790  000026  CFD9 F072          	movff	fsr2l,??_ISR_2+4
  1791  00002A  CFDA F073          	movff	fsr2h,??_ISR_2+5
  1792  00002E  CFF6 F074          	movff	tblptrl,??_ISR_2+6
  1793  000032  CFF7 F075          	movff	tblptrh,??_ISR_2+7
  1794  000036  CFF8 F076          	movff	tblptru,??_ISR_2+8
  1795  00003A  CFF5 F077          	movff	tablat,??_ISR_2+9
  1796  00003E                     
  1797                           ;main.c: 147: if(INTCON3bits.INT1IF = 0x01 && INTCON3bits.INT1IE == 0x01){
  1798  00003E  0E00               	movlw	0
  1799  000040  0100               	movlb	0	; () banked
  1800  000042  6F78               	movwf	_ISR_2$1093& (0+255),b
  1801  000044                     
  1802                           ; BSR set to: 0
  1803  000044  A6F0               	btfss	240,3,c	;volatile
  1804  000046  EF27  F000         	goto	i1u196_21
  1805  00004A  EF29  F000         	goto	i1u196_20
  1806  00004E                     i1u196_21:
  1807  00004E  EF2B  F000         	goto	i1l1653
  1808  000052                     i1u196_20:
  1809  000052                     
  1810                           ; BSR set to: 0
  1811  000052  0E01               	movlw	1
  1812  000054  6F78               	movwf	_ISR_2$1093& (0+255),b
  1813  000056                     i1l1653:
  1814                           
  1815                           ; BSR set to: 0
  1816  000056  50F0               	movf	240,w,c	;volatile
  1817  000058  1978               	xorwf	_ISR_2$1093& (0+255),w,b
  1818  00005A  0BFE               	andlw	-2
  1819  00005C  1978               	xorwf	_ISR_2$1093& (0+255),w,b
  1820  00005E  6EF0               	movwf	240,c	;volatile
  1821  000060  50F0               	movf	240,w,c	;volatile
  1822  000062  0B01               	andlw	1
  1823  000064  0900               	iorlw	0
  1824  000066  B4D8               	btfsc	status,2,c
  1825  000068  EF38  F000         	goto	i1u197_21
  1826  00006C  EF3A  F000         	goto	i1u197_20
  1827  000070                     i1u197_21:
  1828  000070  EF57  F000         	goto	i1l130
  1829  000074                     i1u197_20:
  1830  000074                     
  1831                           ; BSR set to: 0
  1832                           ;main.c: 148: LCD_20_LINE3();
  1833  000074  EC1D  F00E         	call	_LCD_20_LINE3	;wreg free
  1834  000078                     
  1835                           ;main.c: 149: LCD_DISPLAY("INT1 Detected ");
  1836  000078  0E23               	movlw	low STR_3
  1837  00007A  6E2E               	movwf	i1LCD_DISPLAY@string^0,c
  1838  00007C  0E0F               	movlw	high STR_3
  1839  00007E  6E2F               	movwf	(i1LCD_DISPLAY@string+1)^0,c
  1840  000080  ECE6  F00C         	call	i1_LCD_DISPLAY	;wreg free
  1841  000084                     
  1842                           ;main.c: 150: PORTDbits.RD6 = ~ PORTDbits.RD6;
  1843  000084  BC83               	btfsc	131,6,c	;volatile
  1844  000086  EF47  F000         	goto	i1u198_21
  1845  00008A  EF4A  F000         	goto	i1u198_20
  1846  00008E                     i1u198_21:
  1847  00008E  0E01               	movlw	1
  1848  000090  EF4B  F000         	goto	i1u198_26
  1849  000094                     i1u198_20:
  1850  000094  0E00               	movlw	0
  1851  000096                     i1u198_26:
  1852  000096  0AFF               	xorlw	255
  1853  000098  0100               	movlb	0	; () banked
  1854  00009A  6F6E               	movwf	??_ISR_2& (0+255),b
  1855  00009C  3B6E               	swapf	??_ISR_2& (0+255),f,b
  1856  00009E  476E               	rlncf	??_ISR_2& (0+255),f,b
  1857  0000A0  476E               	rlncf	??_ISR_2& (0+255),f,b
  1858  0000A2  5083               	movf	131,w,c	;volatile
  1859  0000A4  196E               	xorwf	??_ISR_2& (0+255),w,b
  1860  0000A6  0BBF               	andlw	-65
  1861  0000A8  196E               	xorwf	??_ISR_2& (0+255),w,b
  1862  0000AA  6E83               	movwf	131,c	;volatile
  1863  0000AC                     
  1864                           ; BSR set to: 0
  1865                           ;main.c: 151: INTCON3bits.INT1IF = 0x00;
  1866  0000AC  90F0               	bcf	240,0,c	;volatile
  1867  0000AE                     i1l130:
  1868                           
  1869                           ; BSR set to: 0
  1870  0000AE  C077  FFF5         	movff	??_ISR_2+9,tablat
  1871  0000B2  C076  FFF8         	movff	??_ISR_2+8,tblptru
  1872  0000B6  C075  FFF7         	movff	??_ISR_2+7,tblptrh
  1873  0000BA  C074  FFF6         	movff	??_ISR_2+6,tblptrl
  1874  0000BE  C073  FFDA         	movff	??_ISR_2+5,fsr2h
  1875  0000C2  C072  FFD9         	movff	??_ISR_2+4,fsr2l
  1876  0000C6  C071  FFE0         	movff	??_ISR_2+3,bsr
  1877  0000CA  C070  FFE8         	movff	??_ISR_2+2,wreg
  1878  0000CE  C06F  FFD8         	movff	??_ISR_2+1,status
  1879  0000D2  903A               	bcf	int$flags,0,c	;clear compiler interrupt flag (level 1)
  1880  0000D4  0010               	retfie	
  1881  0000D6                     __end_of_ISR_2:
  1882                           	callstack 0
  1883                           
  1884 ;; *************** function i1_LCD_DISPLAY *****************
  1885 ;; Defined at:
  1886 ;;		line 149 in file "LCD.h"
  1887 ;; Parameters:    Size  Location     Type
  1888 ;;  string          2   45[COMRAM] PTR const unsigned char 
  1889 ;;		 -> STR_3(15), STR_2(15), STR_1(19), 
  1890 ;; Auto vars:     Size  Location     Type
  1891 ;;  x               2   51[COMRAM] int 
  1892 ;;  length          2   49[COMRAM] unsigned int 
  1893 ;; Return value:  Size  Location     Type
  1894 ;;                  1    wreg      void 
  1895 ;; Registers used:
  1896 ;;		wreg, fsr2l, fsr2h, status,2, status,0, tblptrl, tblptrh, tblptru, cstack
  1897 ;; Tracked objects:
  1898 ;;		On entry : 0/0
  1899 ;;		On exit  : 0/0
  1900 ;;		Unchanged: 0/0
  1901 ;; Data sizes:     COMRAM   BANK0   BANK1   BANK2   BANK3   BANK4   BANK5   BANK6   BANK7   BANK8   BANK9  BANK10  BANK1
      +1  BANK12  BANK13  BANK14
  1902 ;;      Params:         2       0       0       0       0       0       0       0       0       0       0       0       
      +0       0       0       0
  1903 ;;      Locals:         4       0       0       0       0       0       0       0       0       0       0       0       
      +0       0       0       0
  1904 ;;      Temps:          2       0       0       0       0       0       0       0       0       0       0       0       
      +0       0       0       0
  1905 ;;      Totals:         8       0       0       0       0       0       0       0       0       0       0       0       
      +0       0       0       0
  1906 ;;Total ram usage:        8 bytes
  1907 ;; Hardware stack levels used: 1
  1908 ;; Hardware stack levels required when called: 4
  1909 ;; This function calls:
  1910 ;;		i1_LCD_DATA
  1911 ;;		i1_strlen
  1912 ;; This function is called by:
  1913 ;;		_ISR_2
  1914 ;; This function uses a non-reentrant model
  1915 ;;
  1916                           
  1917                           	psect	text11
  1918  0019CC                     __ptext11:
  1919                           	callstack 0
  1920  0019CC                     i1_LCD_DISPLAY:
  1921                           	callstack 23
  1922  0019CC                     
  1923                           ;LCD.h: 150: unsigned int length = strlen(string);
  1924  0019CC  C02E  F026         	movff	i1LCD_DISPLAY@string,i1strlen@s
  1925  0019D0  C02F  F027         	movff	i1LCD_DISPLAY@string+1,i1strlen@s+1
  1926  0019D4  EC9F  F00D         	call	i1_strlen	;wreg free
  1927  0019D8  C026  F032         	movff	?i1_strlen,i1LCD_DISPLAY@length
  1928  0019DC  C027  F033         	movff	?i1_strlen+1,i1LCD_DISPLAY@length+1
  1929  0019E0                     
  1930                           ;LCD.h: 151: signed int x;;LCD.h: 152: for(x = 0x00 ; x < length ; x-=-0x01){
  1931  0019E0  0E00               	movlw	0
  1932  0019E2  6E35               	movwf	(i1LCD_DISPLAY@x+1)^0,c
  1933  0019E4  0E00               	movlw	0
  1934  0019E6  6E34               	movwf	i1LCD_DISPLAY@x^0,c
  1935  0019E8  EF0A  F00D         	goto	i1l1599
  1936  0019EC                     i1l1595:
  1937                           
  1938                           ;LCD.h: 153: LCD_DATA(string[x],0x04);
  1939  0019EC  0E00               	movlw	0
  1940  0019EE  6E27               	movwf	(i1LCD_DATA@mode+1)^0,c
  1941  0019F0  0E04               	movlw	4
  1942  0019F2  6E26               	movwf	i1LCD_DATA@mode^0,c
  1943  0019F4  5034               	movf	i1LCD_DISPLAY@x^0,w,c
  1944  0019F6  242E               	addwf	i1LCD_DISPLAY@string^0,w,c
  1945  0019F8  6E30               	movwf	??i1_LCD_DISPLAY^0,c
  1946  0019FA  5035               	movf	(i1LCD_DISPLAY@x+1)^0,w,c
  1947  0019FC  202F               	addwfc	(i1LCD_DISPLAY@string+1)^0,w,c
  1948  0019FE  6E31               	movwf	(??i1_LCD_DISPLAY+1)^0,c
  1949  001A00  C030  FFF6         	movff	??i1_LCD_DISPLAY,tblptrl
  1950  001A04  C031  FFF7         	movff	??i1_LCD_DISPLAY+1,tblptrh
  1951  001A08                     	if	0	;tblptru may be non-zero
  1952  001A08                     	endif
  1953  001A08                     	if	0	;tblptru may be non-zero
  1954  001A08                     	endif
  1955  001A08  0008               	tblrd		*
  1956  001A0A  50F5               	movf	tablat,w,c
  1957  001A0C  EC74  F008         	call	i1_LCD_DATA
  1958  001A10  4A34               	infsnz	i1LCD_DISPLAY@x^0,f,c
  1959  001A12  2A35               	incf	(i1LCD_DISPLAY@x+1)^0,f,c
  1960  001A14                     i1l1599:
  1961  001A14  5032               	movf	i1LCD_DISPLAY@length^0,w,c
  1962  001A16  5C34               	subwf	i1LCD_DISPLAY@x^0,w,c
  1963  001A18  5033               	movf	(i1LCD_DISPLAY@length+1)^0,w,c
  1964  001A1A  5835               	subwfb	(i1LCD_DISPLAY@x+1)^0,w,c
  1965  001A1C  A0D8               	btfss	status,0,c
  1966  001A1E  EF13  F00D         	goto	i1u191_21
  1967  001A22  EF15  F00D         	goto	i1u191_20
  1968  001A26                     i1u191_21:
  1969  001A26  EFF6  F00C         	goto	i1l1595
  1970  001A2A                     i1u191_20:
  1971  001A2A  0012               	return		;funcret
  1972  001A2C                     __end_ofi1_LCD_DISPLAY:
  1973                           	callstack 0
  1974                           
  1975 ;; *************** function i1_strlen *****************
  1976 ;; Defined at:
  1977 ;;		line 4 in file "C:\Program Files\Microchip\xc8\v2.36\pic\sources\c90\common\strlen.c"
  1978 ;; Parameters:    Size  Location     Type
  1979 ;;  s               2   37[COMRAM] PTR const unsigned char 
  1980 ;;		 -> STR_3(15), STR_2(15), STR_1(19), 
  1981 ;; Auto vars:     Size  Location     Type
  1982 ;;  cp              2   39[COMRAM] PTR const unsigned char 
  1983 ;;		 -> STR_3(15), STR_2(15), STR_1(19), 
  1984 ;; Return value:  Size  Location     Type
  1985 ;;                  2   37[COMRAM] unsigned int 
  1986 ;; Registers used:
  1987 ;;		wreg, status,2, status,0, tblptrl, tblptrh, tblptru
  1988 ;; Tracked objects:
  1989 ;;		On entry : 0/0
  1990 ;;		On exit  : 0/0
  1991 ;;		Unchanged: 0/0
  1992 ;; Data sizes:     COMRAM   BANK0   BANK1   BANK2   BANK3   BANK4   BANK5   BANK6   BANK7   BANK8   BANK9  BANK10  BANK1
      +1  BANK12  BANK13  BANK14
  1993 ;;      Params:         2       0       0       0       0       0       0       0       0       0       0       0       
      +0       0       0       0
  1994 ;;      Locals:         2       0       0       0       0       0       0       0       0       0       0       0       
      +0       0       0       0
  1995 ;;      Temps:          0       0       0       0       0       0       0       0       0       0       0       0       
      +0       0       0       0
  1996 ;;      Totals:         4       0       0       0       0       0       0       0       0       0       0       0       
      +0       0       0       0
  1997 ;;Total ram usage:        4 bytes
  1998 ;; Hardware stack levels used: 1
  1999 ;; Hardware stack levels required when called: 3
  2000 ;; This function calls:
  2001 ;;		Nothing
  2002 ;; This function is called by:
  2003 ;;		i1_LCD_DISPLAY
  2004 ;; This function uses a non-reentrant model
  2005 ;;
  2006                           
  2007                           	psect	text12
  2008  001B3E                     __ptext12:
  2009                           	callstack 0
  2010  001B3E                     i1_strlen:
  2011                           	callstack 23
  2012  001B3E  C026  F028         	movff	i1strlen@s,i1strlen@cp
  2013  001B42  C027  F029         	movff	i1strlen@s+1,i1strlen@cp+1
  2014  001B46  EFA7  F00D         	goto	i1l1523
  2015  001B4A                     i1l1521:
  2016  001B4A  4A28               	infsnz	i1strlen@cp^0,f,c
  2017  001B4C  2A29               	incf	(i1strlen@cp+1)^0,f,c
  2018  001B4E                     i1l1523:
  2019  001B4E  C028  FFF6         	movff	i1strlen@cp,tblptrl
  2020  001B52  C029  FFF7         	movff	i1strlen@cp+1,tblptrh
  2021  001B56                     	if	0	;tblptru may be non-zero
  2022  001B56                     	endif
  2023  001B56                     	if	0	;tblptru may be non-zero
  2024  001B56                     	endif
  2025  001B56  0008               	tblrd		*
  2026  001B58  50F5               	movf	tablat,w,c
  2027  001B5A  0900               	iorlw	0
  2028  001B5C  A4D8               	btfss	status,2,c
  2029  001B5E  EFB3  F00D         	goto	i1u188_21
  2030  001B62  EFB5  F00D         	goto	i1u188_20
  2031  001B66                     i1u188_21:
  2032  001B66  EFA5  F00D         	goto	i1l1521
  2033  001B6A                     i1u188_20:
  2034  001B6A  5026               	movf	i1strlen@s^0,w,c
  2035  001B6C  5C28               	subwf	i1strlen@cp^0,w,c
  2036  001B6E  6E26               	movwf	?i1_strlen^0,c
  2037  001B70  5027               	movf	(i1strlen@s+1)^0,w,c
  2038  001B72  5829               	subwfb	(i1strlen@cp+1)^0,w,c
  2039  001B74  6E27               	movwf	(?i1_strlen+1)^0,c
  2040  001B76  0012               	return		;funcret
  2041  001B78                     __end_ofi1_strlen:
  2042                           	callstack 0
  2043                           
  2044 ;; *************** function i1_LCD_DATA *****************
  2045 ;; Defined at:
  2046 ;;		line 71 in file "LCD.h"
  2047 ;; Parameters:    Size  Location     Type
  2048 ;;  data            1    wreg     unsigned char 
  2049 ;;  mode            2   37[COMRAM] int 
  2050 ;; Auto vars:     Size  Location     Type
  2051 ;;  data            1    0[BANK0 ] unsigned char 
  2052 ;;  _4bit_          8    1[BANK0 ] unsigned int [4]
  2053 ;;  x               2   12[BANK0 ] int 
  2054 ;;  x               2   10[BANK0 ] int 
  2055 ;;  _data           1    9[BANK0 ] unsigned char 
  2056 ;; Return value:  Size  Location     Type
  2057 ;;                  1    wreg      void 
  2058 ;; Registers used:
  2059 ;;		wreg, fsr2l, fsr2h, status,2, status,0
  2060 ;; Tracked objects:
  2061 ;;		On entry : 0/0
  2062 ;;		On exit  : 0/0
  2063 ;;		Unchanged: 0/0
  2064 ;; Data sizes:     COMRAM   BANK0   BANK1   BANK2   BANK3   BANK4   BANK5   BANK6   BANK7   BANK8   BANK9  BANK10  BANK1
      +1  BANK12  BANK13  BANK14
  2065 ;;      Params:         2       0       0       0       0       0       0       0       0       0       0       0       
      +0       0       0       0
  2066 ;;      Locals:         0      14       0       0       0       0       0       0       0       0       0       0       
      +0       0       0       0
  2067 ;;      Temps:          6       0       0       0       0       0       0       0       0       0       0       0       
      +0       0       0       0
  2068 ;;      Totals:         8      14       0       0       0       0       0       0       0       0       0       0       
      +0       0       0       0
  2069 ;;Total ram usage:       22 bytes
  2070 ;; Hardware stack levels used: 1
  2071 ;; Hardware stack levels required when called: 3
  2072 ;; This function calls:
  2073 ;;		Nothing
  2074 ;; This function is called by:
  2075 ;;		i1_LCD_DISPLAY
  2076 ;; This function uses a non-reentrant model
  2077 ;;
  2078                           
  2079                           	psect	text13
  2080  0010E8                     __ptext13:
  2081                           	callstack 0
  2082  0010E8                     i1_LCD_DATA:
  2083                           	callstack 23
  2084                           
  2085                           ;incstack = 0
  2086                           ;i1LCD_DATA@data stored from wreg
  2087  0010E8  0100               	movlb	0	; () banked
  2088  0010EA  6F60               	movwf	i1LCD_DATA@data& (0+255),b
  2089  0010EC                     
  2090                           ;LCD.h: 72: unsigned char _data = data;
  2091  0010EC  C060  F069         	movff	i1LCD_DATA@data,i1LCD_DATA@_data
  2092  0010F0                     
  2093                           ;LCD.h: 73: unsigned int _4bit_[0x04];;LCD.h: 74: if(mode == 0x04){
  2094  0010F0  0E04               	movlw	4
  2095  0010F2  1826               	xorwf	i1LCD_DATA@mode^0,w,c
  2096  0010F4  1027               	iorwf	(i1LCD_DATA@mode+1)^0,w,c
  2097  0010F6  A4D8               	btfss	status,2,c
  2098  0010F8  EF80  F008         	goto	i1u130_21
  2099  0010FC  EF82  F008         	goto	i1u130_20
  2100  001100                     i1u130_21:
  2101  001100  EF4D  F009         	goto	i1l65
  2102  001104                     i1u130_20:
  2103  001104                     
  2104                           ;LCD.h: 75: _data = _data>>0x04;
  2105  001104  0100               	movlb	0	; () banked
  2106  001106  3969               	swapf	i1LCD_DATA@_data& (0+255),w,b
  2107  001108  0B0F               	andlw	15
  2108  00110A  6F69               	movwf	i1LCD_DATA@_data& (0+255),b
  2109  00110C                     
  2110                           ; BSR set to: 0
  2111                           ;LCD.h: 76: for(int x =0x00; x < 0x04; x-=-0x01){
  2112  00110C  0E00               	movlw	0
  2113  00110E  6F6B               	movwf	(i1LCD_DATA@x+1)& (0+255),b
  2114  001110  0E00               	movlw	0
  2115  001112  6F6A               	movwf	i1LCD_DATA@x& (0+255),b
  2116  001114                     i1l1375:
  2117                           
  2118                           ; BSR set to: 0
  2119                           ;LCD.h: 77: _4bit_[x] = (_data & (0x01<<x))>>x;
  2120  001114  C06A  F028         	movff	i1LCD_DATA@x,??i1_LCD_DATA
  2121  001118  C06A  F029         	movff	i1LCD_DATA@x,??i1_LCD_DATA+1
  2122  00111C  0E01               	movlw	1
  2123  00111E  6E2A               	movwf	(??i1_LCD_DATA+2)^0,c
  2124  001120  2A29               	incf	(??i1_LCD_DATA+1)^0,f,c
  2125  001122  EF95  F008         	goto	i1u131_24
  2126  001126                     i1u131_25:
  2127  001126  90D8               	bcf	status,0,c
  2128  001128  362A               	rlcf	(??i1_LCD_DATA+2)^0,f,c
  2129  00112A                     i1u131_24:
  2130  00112A  2E29               	decfsz	(??i1_LCD_DATA+1)^0,f,c
  2131  00112C  EF93  F008         	goto	i1u131_25
  2132  001130  502A               	movf	(??i1_LCD_DATA+2)^0,w,c
  2133  001132  0100               	movlb	0	; () banked
  2134  001134  1569               	andwf	i1LCD_DATA@_data& (0+255),w,b
  2135  001136  6E2B               	movwf	(??i1_LCD_DATA+3)^0,c
  2136  001138  2A28               	incf	??i1_LCD_DATA^0,f,c
  2137  00113A  EFA1  F008         	goto	i1u132_24
  2138  00113E                     i1u132_25:
  2139  00113E  90D8               	bcf	status,0,c
  2140  001140  322B               	rrcf	(??i1_LCD_DATA+3)^0,f,c
  2141  001142                     i1u132_24:
  2142  001142  2E28               	decfsz	??i1_LCD_DATA^0,f,c
  2143  001144  EF9F  F008         	goto	i1u132_25
  2144  001148  502B               	movf	(??i1_LCD_DATA+3)^0,w,c
  2145  00114A  6E2C               	movwf	(??i1_LCD_DATA+4)^0,c
  2146  00114C  6A2D               	clrf	(??i1_LCD_DATA+5)^0,c
  2147  00114E  90D8               	bcf	status,0,c
  2148  001150  0100               	movlb	0	; () banked
  2149  001152  356A               	rlcf	i1LCD_DATA@x& (0+255),w,b
  2150  001154  6ED9               	movwf	fsr2l,c
  2151  001156  356B               	rlcf	(i1LCD_DATA@x+1)& (0+255),w,b
  2152  001158  6EDA               	movwf	fsr2h,c
  2153  00115A  0E61               	movlw	low i1LCD_DATA@_4bit_
  2154  00115C  26D9               	addwf	fsr2l,f,c
  2155  00115E  0E00               	movlw	high i1LCD_DATA@_4bit_
  2156  001160  22DA               	addwfc	fsr2h,f,c
  2157  001162  C02C  FFDE         	movff	??i1_LCD_DATA+4,postinc2
  2158  001166  C02D  FFDD         	movff	??i1_LCD_DATA+5,postdec2
  2159  00116A                     
  2160                           ; BSR set to: 0
  2161  00116A  4B6A               	infsnz	i1LCD_DATA@x& (0+255),f,b
  2162  00116C  2B6B               	incf	(i1LCD_DATA@x+1)& (0+255),f,b
  2163  00116E                     
  2164                           ; BSR set to: 0
  2165  00116E  BF6B               	btfsc	(i1LCD_DATA@x+1)& (0+255),7,b
  2166  001170  EFC3  F008         	goto	i1u133_21
  2167  001174  516B               	movf	(i1LCD_DATA@x+1)& (0+255),w,b
  2168  001176  E109               	bnz	i1u133_20
  2169  001178  0E04               	movlw	4
  2170  00117A  5D6A               	subwf	i1LCD_DATA@x& (0+255),w,b
  2171  00117C  A0D8               	btfss	status,0,c
  2172  00117E  EFC3  F008         	goto	i1u133_21
  2173  001182  EFC5  F008         	goto	i1u133_20
  2174  001186                     i1u133_21:
  2175  001186  EF8A  F008         	goto	i1l1375
  2176  00118A                     i1u133_20:
  2177  00118A                     
  2178                           ; BSR set to: 0
  2179                           ;LCD.h: 78: };LCD.h: 79: TRISCbits.RC0 = (char)_4bit_[0x00];
  2180  00118A  B161               	btfsc	i1LCD_DATA@_4bit_& (0+255),0,b
  2181  00118C  D002               	bra	i1u134_25
  2182  00118E  9094               	bcf	148,0,c	;volatile
  2183  001190  D001               	bra	i1u134_26
  2184  001192                     i1u134_25:
  2185  001192  8094               	bsf	148,0,c	;volatile
  2186  001194                     i1u134_26:
  2187                           
  2188                           ;LCD.h: 80: TRISCbits.RC1 = (char)_4bit_[0x01];
  2189  001194  0100               	movlb	0	; () banked
  2190  001196  B163               	btfsc	(i1LCD_DATA@_4bit_+2)& (0+255),0,b
  2191  001198  D002               	bra	i1u135_25
  2192  00119A  9294               	bcf	148,1,c	;volatile
  2193  00119C  D001               	bra	i1u135_26
  2194  00119E                     i1u135_25:
  2195  00119E  8294               	bsf	148,1,c	;volatile
  2196  0011A0                     i1u135_26:
  2197                           
  2198                           ;LCD.h: 81: TRISCbits.RC2 = (char)_4bit_[0x02];
  2199  0011A0  0100               	movlb	0	; () banked
  2200  0011A2  B165               	btfsc	(i1LCD_DATA@_4bit_+4)& (0+255),0,b
  2201  0011A4  D002               	bra	i1u136_25
  2202  0011A6  9494               	bcf	148,2,c	;volatile
  2203  0011A8  D001               	bra	i1u136_26
  2204  0011AA                     i1u136_25:
  2205  0011AA  8494               	bsf	148,2,c	;volatile
  2206  0011AC                     i1u136_26:
  2207                           
  2208                           ;LCD.h: 82: TRISCbits.RC3 = (char)_4bit_[0x03];
  2209  0011AC  0100               	movlb	0	; () banked
  2210  0011AE  B167               	btfsc	(i1LCD_DATA@_4bit_+6)& (0+255),0,b
  2211  0011B0  D002               	bra	i1u137_25
  2212  0011B2  9694               	bcf	148,3,c	;volatile
  2213  0011B4  D001               	bra	i1u137_26
  2214  0011B6                     i1u137_25:
  2215  0011B6  8694               	bsf	148,3,c	;volatile
  2216  0011B8                     i1u137_26:
  2217                           
  2218                           ;LCD.h: 83: PORTJbits.RJ1 = 0x01;
  2219  0011B8  8288               	bsf	136,1,c	;volatile
  2220                           
  2221                           ;LCD.h: 84: PORTBbits.RB3 = 0x00;
  2222  0011BA  9681               	bcf	129,3,c	;volatile
  2223                           
  2224                           ;LCD.h: 85: PORTJbits.RJ0 = 0x01;
  2225  0011BC  8088               	bsf	136,0,c	;volatile
  2226  0011BE                     
  2227                           ;LCD.h: 86: _delay((unsigned long)((2)*(0x12BFCE0/4000.0)));
  2228  0011BE  0E0D               	movlw	13
  2229  0011C0  6E28               	movwf	??i1_LCD_DATA^0,c
  2230  0011C2  0EC3               	movlw	195
  2231  0011C4                     i1u205_27:
  2232  0011C4  2EE8               	decfsz	wreg,f,c
  2233  0011C6  D7FE               	bra	i1u205_27
  2234  0011C8  2E28               	decfsz	??i1_LCD_DATA^0,f,c
  2235  0011CA  D7FC               	bra	i1u205_27
  2236  0011CC  F000               	nop	
  2237  0011CE                     
  2238                           ;LCD.h: 87: PORTJbits.RJ0 = 0x00;
  2239  0011CE  9088               	bcf	136,0,c	;volatile
  2240  0011D0                     
  2241                           ;LCD.h: 89: _data = data;
  2242  0011D0  C060  F069         	movff	i1LCD_DATA@data,i1LCD_DATA@_data
  2243  0011D4                     
  2244                           ;LCD.h: 90: for(int x = 0x00; x< 0x04; x-=-0x01){
  2245  0011D4  0E00               	movlw	0
  2246  0011D6  0100               	movlb	0	; () banked
  2247  0011D8  6F6D               	movwf	(i1LCD_DATA@x_979+1)& (0+255),b
  2248  0011DA  0E00               	movlw	0
  2249  0011DC  6F6C               	movwf	i1LCD_DATA@x_979& (0+255),b
  2250  0011DE                     i1l1393:
  2251                           
  2252                           ; BSR set to: 0
  2253                           ;LCD.h: 91: _4bit_[x] = (_data & (0x01<<x))>>x;
  2254  0011DE  C06C  F028         	movff	i1LCD_DATA@x_979,??i1_LCD_DATA
  2255  0011E2  C06C  F029         	movff	i1LCD_DATA@x_979,??i1_LCD_DATA+1
  2256  0011E6  0E01               	movlw	1
  2257  0011E8  6E2A               	movwf	(??i1_LCD_DATA+2)^0,c
  2258  0011EA  2A29               	incf	(??i1_LCD_DATA+1)^0,f,c
  2259  0011EC  EFFA  F008         	goto	i1u138_24
  2260  0011F0                     i1u138_25:
  2261  0011F0  90D8               	bcf	status,0,c
  2262  0011F2  362A               	rlcf	(??i1_LCD_DATA+2)^0,f,c
  2263  0011F4                     i1u138_24:
  2264  0011F4  2E29               	decfsz	(??i1_LCD_DATA+1)^0,f,c
  2265  0011F6  EFF8  F008         	goto	i1u138_25
  2266  0011FA  502A               	movf	(??i1_LCD_DATA+2)^0,w,c
  2267  0011FC  0100               	movlb	0	; () banked
  2268  0011FE  1569               	andwf	i1LCD_DATA@_data& (0+255),w,b
  2269  001200  6E2B               	movwf	(??i1_LCD_DATA+3)^0,c
  2270  001202  2A28               	incf	??i1_LCD_DATA^0,f,c
  2271  001204  EF06  F009         	goto	i1u139_24
  2272  001208                     i1u139_25:
  2273  001208  90D8               	bcf	status,0,c
  2274  00120A  322B               	rrcf	(??i1_LCD_DATA+3)^0,f,c
  2275  00120C                     i1u139_24:
  2276  00120C  2E28               	decfsz	??i1_LCD_DATA^0,f,c
  2277  00120E  EF04  F009         	goto	i1u139_25
  2278  001212  502B               	movf	(??i1_LCD_DATA+3)^0,w,c
  2279  001214  6E2C               	movwf	(??i1_LCD_DATA+4)^0,c
  2280  001216  6A2D               	clrf	(??i1_LCD_DATA+5)^0,c
  2281  001218  90D8               	bcf	status,0,c
  2282  00121A  0100               	movlb	0	; () banked
  2283  00121C  356C               	rlcf	i1LCD_DATA@x_979& (0+255),w,b
  2284  00121E  6ED9               	movwf	fsr2l,c
  2285  001220  356D               	rlcf	(i1LCD_DATA@x_979+1)& (0+255),w,b
  2286  001222  6EDA               	movwf	fsr2h,c
  2287  001224  0E61               	movlw	low i1LCD_DATA@_4bit_
  2288  001226  26D9               	addwf	fsr2l,f,c
  2289  001228  0E00               	movlw	high i1LCD_DATA@_4bit_
  2290  00122A  22DA               	addwfc	fsr2h,f,c
  2291  00122C  C02C  FFDE         	movff	??i1_LCD_DATA+4,postinc2
  2292  001230  C02D  FFDD         	movff	??i1_LCD_DATA+5,postdec2
  2293  001234                     
  2294                           ; BSR set to: 0
  2295  001234  4B6C               	infsnz	i1LCD_DATA@x_979& (0+255),f,b
  2296  001236  2B6D               	incf	(i1LCD_DATA@x_979+1)& (0+255),f,b
  2297  001238                     
  2298                           ; BSR set to: 0
  2299  001238  BF6D               	btfsc	(i1LCD_DATA@x_979+1)& (0+255),7,b
  2300  00123A  EF28  F009         	goto	i1u140_21
  2301  00123E  516D               	movf	(i1LCD_DATA@x_979+1)& (0+255),w,b
  2302  001240  E109               	bnz	i1u140_20
  2303  001242  0E04               	movlw	4
  2304  001244  5D6C               	subwf	i1LCD_DATA@x_979& (0+255),w,b
  2305  001246  A0D8               	btfss	status,0,c
  2306  001248  EF28  F009         	goto	i1u140_21
  2307  00124C  EF2A  F009         	goto	i1u140_20
  2308  001250                     i1u140_21:
  2309  001250  EFEF  F008         	goto	i1l1393
  2310  001254                     i1u140_20:
  2311  001254                     
  2312                           ; BSR set to: 0
  2313                           ;LCD.h: 92: };LCD.h: 93: TRISCbits.RC0 = (char)_4bit_[0x00];
  2314  001254  B161               	btfsc	i1LCD_DATA@_4bit_& (0+255),0,b
  2315  001256  D002               	bra	i1u141_25
  2316  001258  9094               	bcf	148,0,c	;volatile
  2317  00125A  D001               	bra	i1u141_26
  2318  00125C                     i1u141_25:
  2319  00125C  8094               	bsf	148,0,c	;volatile
  2320  00125E                     i1u141_26:
  2321                           
  2322                           ;LCD.h: 94: TRISCbits.RC1 = (char)_4bit_[0x01];
  2323  00125E  0100               	movlb	0	; () banked
  2324  001260  B163               	btfsc	(i1LCD_DATA@_4bit_+2)& (0+255),0,b
  2325  001262  D002               	bra	i1u142_25
  2326  001264  9294               	bcf	148,1,c	;volatile
  2327  001266  D001               	bra	i1u142_26
  2328  001268                     i1u142_25:
  2329  001268  8294               	bsf	148,1,c	;volatile
  2330  00126A                     i1u142_26:
  2331                           
  2332                           ;LCD.h: 95: TRISCbits.RC2 = (char)_4bit_[0x02];
  2333  00126A  0100               	movlb	0	; () banked
  2334  00126C  B165               	btfsc	(i1LCD_DATA@_4bit_+4)& (0+255),0,b
  2335  00126E  D002               	bra	i1u143_25
  2336  001270  9494               	bcf	148,2,c	;volatile
  2337  001272  D001               	bra	i1u143_26
  2338  001274                     i1u143_25:
  2339  001274  8494               	bsf	148,2,c	;volatile
  2340  001276                     i1u143_26:
  2341                           
  2342                           ;LCD.h: 96: TRISCbits.RC3 = (char)_4bit_[0x03];
  2343  001276  0100               	movlb	0	; () banked
  2344  001278  B167               	btfsc	(i1LCD_DATA@_4bit_+6)& (0+255),0,b
  2345  00127A  D002               	bra	i1u144_25
  2346  00127C  9694               	bcf	148,3,c	;volatile
  2347  00127E  D001               	bra	i1u144_26
  2348  001280                     i1u144_25:
  2349  001280  8694               	bsf	148,3,c	;volatile
  2350  001282                     i1u144_26:
  2351                           
  2352                           ;LCD.h: 97: PORTJbits.RJ1 = 0x01;
  2353  001282  8288               	bsf	136,1,c	;volatile
  2354                           
  2355                           ;LCD.h: 98: PORTBbits.RB3 = 0x00;
  2356  001284  9681               	bcf	129,3,c	;volatile
  2357                           
  2358                           ;LCD.h: 99: PORTJbits.RJ0 = 0x01;
  2359  001286  8088               	bsf	136,0,c	;volatile
  2360  001288                     
  2361                           ;LCD.h: 100: _delay((unsigned long)((2)*(0x12BFCE0/4000.0)));
  2362  001288  0E0D               	movlw	13
  2363  00128A  6E28               	movwf	??i1_LCD_DATA^0,c
  2364  00128C  0EC3               	movlw	195
  2365  00128E                     i1u206_27:
  2366  00128E  2EE8               	decfsz	wreg,f,c
  2367  001290  D7FE               	bra	i1u206_27
  2368  001292  2E28               	decfsz	??i1_LCD_DATA^0,f,c
  2369  001294  D7FC               	bra	i1u206_27
  2370  001296  F000               	nop	
  2371  001298                     
  2372                           ;LCD.h: 101: PORTJbits.RJ0 = 0x00;
  2373  001298  9088               	bcf	136,0,c	;volatile
  2374  00129A                     i1l65:
  2375  00129A  0012               	return		;funcret
  2376  00129C                     __end_ofi1_LCD_DATA:
  2377                           	callstack 0
  2378                           
  2379 ;; *************** function _LCD_20_LINE3 *****************
  2380 ;; Defined at:
  2381 ;;		line 166 in file "LCD.h"
  2382 ;; Parameters:    Size  Location     Type
  2383 ;;		None
  2384 ;; Auto vars:     Size  Location     Type
  2385 ;;		None
  2386 ;; Return value:  Size  Location     Type
  2387 ;;                  1    wreg      void 
  2388 ;; Registers used:
  2389 ;;		wreg, fsr2l, fsr2h, status,2, status,0, cstack
  2390 ;; Tracked objects:
  2391 ;;		On entry : 0/0
  2392 ;;		On exit  : 0/0
  2393 ;;		Unchanged: 0/0
  2394 ;; Data sizes:     COMRAM   BANK0   BANK1   BANK2   BANK3   BANK4   BANK5   BANK6   BANK7   BANK8   BANK9  BANK10  BANK1
      +1  BANK12  BANK13  BANK14
  2395 ;;      Params:         0       0       0       0       0       0       0       0       0       0       0       0       
      +0       0       0       0
  2396 ;;      Locals:         0       0       0       0       0       0       0       0       0       0       0       0       
      +0       0       0       0
  2397 ;;      Temps:          0       0       0       0       0       0       0       0       0       0       0       0       
      +0       0       0       0
  2398 ;;      Totals:         0       0       0       0       0       0       0       0       0       0       0       0       
      +0       0       0       0
  2399 ;;Total ram usage:        0 bytes
  2400 ;; Hardware stack levels used: 1
  2401 ;; Hardware stack levels required when called: 4
  2402 ;; This function calls:
  2403 ;;		i1_LCD_INSTRUCTION_4BIT
  2404 ;; This function is called by:
  2405 ;;		_ISR_2
  2406 ;; This function uses a non-reentrant model
  2407 ;;
  2408                           
  2409                           	psect	text14
  2410  001C3A                     __ptext14:
  2411                           	callstack 0
  2412  001C3A                     _LCD_20_LINE3:
  2413                           	callstack 23
  2414  001C3A  0E94               	movlw	148
  2415  001C3C  ECEB  F00A         	call	i1_LCD_INSTRUCTION_4BIT
  2416  001C40  0012               	return		;funcret
  2417  001C42                     __end_of_LCD_20_LINE3:
  2418                           	callstack 0
  2419                           
  2420 ;; *************** function i1_LCD_INSTRUCTION_4BIT *****************
  2421 ;; Defined at:
  2422 ;;		line 106 in file "LCD.h"
  2423 ;; Parameters:    Size  Location     Type
  2424 ;;  instruction     1    wreg     unsigned char 
  2425 ;; Auto vars:     Size  Location     Type
  2426 ;;  instruction     1   43[COMRAM] unsigned char 
  2427 ;;  _4bit_          8   44[COMRAM] int [4]
  2428 ;;  x               2   55[COMRAM] int 
  2429 ;;  x               2   53[COMRAM] int 
  2430 ;;  data            1   52[COMRAM] unsigned char 
  2431 ;; Return value:  Size  Location     Type
  2432 ;;                  1    wreg      void 
  2433 ;; Registers used:
  2434 ;;		wreg, fsr2l, fsr2h, status,2, status,0
  2435 ;; Tracked objects:
  2436 ;;		On entry : 0/0
  2437 ;;		On exit  : 0/0
  2438 ;;		Unchanged: 0/0
  2439 ;; Data sizes:     COMRAM   BANK0   BANK1   BANK2   BANK3   BANK4   BANK5   BANK6   BANK7   BANK8   BANK9  BANK10  BANK1
      +1  BANK12  BANK13  BANK14
  2440 ;;      Params:         0       0       0       0       0       0       0       0       0       0       0       0       
      +0       0       0       0
  2441 ;;      Locals:        14       0       0       0       0       0       0       0       0       0       0       0       
      +0       0       0       0
  2442 ;;      Temps:          6       0       0       0       0       0       0       0       0       0       0       0       
      +0       0       0       0
  2443 ;;      Totals:        20       0       0       0       0       0       0       0       0       0       0       0       
      +0       0       0       0
  2444 ;;Total ram usage:       20 bytes
  2445 ;; Hardware stack levels used: 1
  2446 ;; Hardware stack levels required when called: 3
  2447 ;; This function calls:
  2448 ;;		Nothing
  2449 ;; This function is called by:
  2450 ;;		_LCD_20_LINE3
  2451 ;; This function uses a non-reentrant model
  2452 ;;
  2453                           
  2454                           	psect	text15
  2455  0015D6                     __ptext15:
  2456                           	callstack 0
  2457  0015D6                     i1_LCD_INSTRUCTION_4BIT:
  2458                           	callstack 23
  2459                           
  2460                           ;incstack = 0
  2461                           ;i1LCD_INSTRUCTION_4BIT@instruction stored from wreg
  2462  0015D6  6E2C               	movwf	i1LCD_INSTRUCTION_4BIT@instruction^0,c
  2463  0015D8                     
  2464                           ;LCD.h: 107: int _4bit_[0x04];;LCD.h: 108: unsigned char data = instruction;
  2465  0015D8  C02C  F035         	movff	i1LCD_INSTRUCTION_4BIT@instruction,i1LCD_INSTRUCTION_4BIT@data
  2466  0015DC                     
  2467                           ;LCD.h: 109: data = data>>0x04;
  2468  0015DC  3835               	swapf	i1LCD_INSTRUCTION_4BIT@data^0,w,c
  2469  0015DE  0B0F               	andlw	15
  2470  0015E0  6E35               	movwf	i1LCD_INSTRUCTION_4BIT@data^0,c
  2471  0015E2                     
  2472                           ;LCD.h: 110: for(int x =0x00; x < 0x04; x-=-0x01){
  2473  0015E2  0E00               	movlw	0
  2474  0015E4  6E37               	movwf	(i1LCD_INSTRUCTION_4BIT@x+1)^0,c
  2475  0015E6  0E00               	movlw	0
  2476  0015E8  6E36               	movwf	i1LCD_INSTRUCTION_4BIT@x^0,c
  2477  0015EA                     i1l1453:
  2478                           
  2479                           ;LCD.h: 111: _4bit_[x] = (data & (0x01<<x))>>x;
  2480  0015EA  C036  F026         	movff	i1LCD_INSTRUCTION_4BIT@x,??i1_LCD_INSTRUCTION_4BIT
  2481  0015EE  C036  F027         	movff	i1LCD_INSTRUCTION_4BIT@x,??i1_LCD_INSTRUCTION_4BIT+1
  2482  0015F2  0E01               	movlw	1
  2483  0015F4  6E28               	movwf	(??i1_LCD_INSTRUCTION_4BIT+2)^0,c
  2484  0015F6  2A27               	incf	(??i1_LCD_INSTRUCTION_4BIT+1)^0,f,c
  2485  0015F8  EF00  F00B         	goto	i1u160_24
  2486  0015FC                     i1u160_25:
  2487  0015FC  90D8               	bcf	status,0,c
  2488  0015FE  3628               	rlcf	(??i1_LCD_INSTRUCTION_4BIT+2)^0,f,c
  2489  001600                     i1u160_24:
  2490  001600  2E27               	decfsz	(??i1_LCD_INSTRUCTION_4BIT+1)^0,f,c
  2491  001602  EFFE  F00A         	goto	i1u160_25
  2492  001606  5028               	movf	(??i1_LCD_INSTRUCTION_4BIT+2)^0,w,c
  2493  001608  1435               	andwf	i1LCD_INSTRUCTION_4BIT@data^0,w,c
  2494  00160A  6E29               	movwf	(??i1_LCD_INSTRUCTION_4BIT+3)^0,c
  2495  00160C  2A26               	incf	??i1_LCD_INSTRUCTION_4BIT^0,f,c
  2496  00160E  EF0B  F00B         	goto	i1u161_24
  2497  001612                     i1u161_25:
  2498  001612  90D8               	bcf	status,0,c
  2499  001614  3229               	rrcf	(??i1_LCD_INSTRUCTION_4BIT+3)^0,f,c
  2500  001616                     i1u161_24:
  2501  001616  2E26               	decfsz	??i1_LCD_INSTRUCTION_4BIT^0,f,c
  2502  001618  EF09  F00B         	goto	i1u161_25
  2503  00161C  5029               	movf	(??i1_LCD_INSTRUCTION_4BIT+3)^0,w,c
  2504  00161E  6E2A               	movwf	(??i1_LCD_INSTRUCTION_4BIT+4)^0,c
  2505  001620  6A2B               	clrf	(??i1_LCD_INSTRUCTION_4BIT+5)^0,c
  2506  001622  90D8               	bcf	status,0,c
  2507  001624  3436               	rlcf	i1LCD_INSTRUCTION_4BIT@x^0,w,c
  2508  001626  6ED9               	movwf	fsr2l,c
  2509  001628  3437               	rlcf	(i1LCD_INSTRUCTION_4BIT@x+1)^0,w,c
  2510  00162A  6EDA               	movwf	fsr2h,c
  2511  00162C  0E2D               	movlw	low i1LCD_INSTRUCTION_4BIT@_4bit_
  2512  00162E  26D9               	addwf	fsr2l,f,c
  2513  001630  0E00               	movlw	high i1LCD_INSTRUCTION_4BIT@_4bit_
  2514  001632  22DA               	addwfc	fsr2h,f,c
  2515  001634  C02A  FFDE         	movff	??i1_LCD_INSTRUCTION_4BIT+4,postinc2
  2516  001638  C02B  FFDD         	movff	??i1_LCD_INSTRUCTION_4BIT+5,postdec2
  2517  00163C  4A36               	infsnz	i1LCD_INSTRUCTION_4BIT@x^0,f,c
  2518  00163E  2A37               	incf	(i1LCD_INSTRUCTION_4BIT@x+1)^0,f,c
  2519  001640  BE37               	btfsc	(i1LCD_INSTRUCTION_4BIT@x+1)^0,7,c
  2520  001642  EF2C  F00B         	goto	i1u162_21
  2521  001646  5037               	movf	(i1LCD_INSTRUCTION_4BIT@x+1)^0,w,c
  2522  001648  E109               	bnz	i1u162_20
  2523  00164A  0E04               	movlw	4
  2524  00164C  5C36               	subwf	i1LCD_INSTRUCTION_4BIT@x^0,w,c
  2525  00164E  A0D8               	btfss	status,0,c
  2526  001650  EF2C  F00B         	goto	i1u162_21
  2527  001654  EF2E  F00B         	goto	i1u162_20
  2528  001658                     i1u162_21:
  2529  001658  EFF5  F00A         	goto	i1l1453
  2530  00165C                     i1u162_20:
  2531  00165C                     
  2532                           ;LCD.h: 112: };LCD.h: 113: TRISCbits.RC0 = (char)_4bit_[0x00];
  2533  00165C  B02D               	btfsc	i1LCD_INSTRUCTION_4BIT@_4bit_^0,0,c
  2534  00165E  D002               	bra	i1u163_25
  2535  001660  9094               	bcf	148,0,c	;volatile
  2536  001662  D001               	bra	i1u163_26
  2537  001664                     i1u163_25:
  2538  001664  8094               	bsf	148,0,c	;volatile
  2539  001666                     i1u163_26:
  2540                           
  2541                           ;LCD.h: 114: TRISCbits.RC1 = (char)_4bit_[0x01];
  2542  001666  B02F               	btfsc	(i1LCD_INSTRUCTION_4BIT@_4bit_+2)^0,0,c
  2543  001668  D002               	bra	i1u164_25
  2544  00166A  9294               	bcf	148,1,c	;volatile
  2545  00166C  D001               	bra	i1u164_26
  2546  00166E                     i1u164_25:
  2547  00166E  8294               	bsf	148,1,c	;volatile
  2548  001670                     i1u164_26:
  2549                           
  2550                           ;LCD.h: 115: TRISCbits.RC2 = (char)_4bit_[0x02];
  2551  001670  B031               	btfsc	(i1LCD_INSTRUCTION_4BIT@_4bit_+4)^0,0,c
  2552  001672  D002               	bra	i1u165_25
  2553  001674  9494               	bcf	148,2,c	;volatile
  2554  001676  D001               	bra	i1u165_26
  2555  001678                     i1u165_25:
  2556  001678  8494               	bsf	148,2,c	;volatile
  2557  00167A                     i1u165_26:
  2558                           
  2559                           ;LCD.h: 116: TRISCbits.RC3 = (char)_4bit_[0x03];
  2560  00167A  B033               	btfsc	(i1LCD_INSTRUCTION_4BIT@_4bit_+6)^0,0,c
  2561  00167C  D002               	bra	i1u166_25
  2562  00167E  9694               	bcf	148,3,c	;volatile
  2563  001680  D001               	bra	i1u166_26
  2564  001682                     i1u166_25:
  2565  001682  8694               	bsf	148,3,c	;volatile
  2566  001684                     i1u166_26:
  2567                           
  2568                           ;LCD.h: 117: PORTJbits.RJ1 = 0x00;
  2569  001684  9288               	bcf	136,1,c	;volatile
  2570                           
  2571                           ;LCD.h: 118: PORTBbits.RB3 = 0x00;
  2572  001686  9681               	bcf	129,3,c	;volatile
  2573                           
  2574                           ;LCD.h: 119: PORTJbits.RJ0 = 0x01;
  2575  001688  8088               	bsf	136,0,c	;volatile
  2576  00168A                     
  2577                           ;LCD.h: 120: _delay((unsigned long)((2)*(0x12BFCE0/4000.0)));
  2578  00168A  0E0D               	movlw	13
  2579  00168C  6E26               	movwf	??i1_LCD_INSTRUCTION_4BIT^0,c
  2580  00168E  0EC3               	movlw	195
  2581  001690                     i1u207_27:
  2582  001690  2EE8               	decfsz	wreg,f,c
  2583  001692  D7FE               	bra	i1u207_27
  2584  001694  2E26               	decfsz	??i1_LCD_INSTRUCTION_4BIT^0,f,c
  2585  001696  D7FC               	bra	i1u207_27
  2586  001698  F000               	nop	
  2587  00169A                     
  2588                           ;LCD.h: 121: PORTJbits.RJ0 = 0x00;
  2589  00169A  9088               	bcf	136,0,c	;volatile
  2590  00169C                     
  2591                           ;LCD.h: 123: data = instruction;
  2592  00169C  C02C  F035         	movff	i1LCD_INSTRUCTION_4BIT@instruction,i1LCD_INSTRUCTION_4BIT@data
  2593  0016A0                     
  2594                           ;LCD.h: 124: for(int x = 0x00; x< 0x04; x-=-0x01){
  2595  0016A0  0E00               	movlw	0
  2596  0016A2  6E39               	movwf	(i1LCD_INSTRUCTION_4BIT@x_985+1)^0,c
  2597  0016A4  0E00               	movlw	0
  2598  0016A6  6E38               	movwf	i1LCD_INSTRUCTION_4BIT@x_985^0,c
  2599  0016A8                     i1l1471:
  2600                           
  2601                           ;LCD.h: 125: _4bit_[x] = (data & (0x01<<x))>>x;
  2602  0016A8  C038  F026         	movff	i1LCD_INSTRUCTION_4BIT@x_985,??i1_LCD_INSTRUCTION_4BIT
  2603  0016AC  C038  F027         	movff	i1LCD_INSTRUCTION_4BIT@x_985,??i1_LCD_INSTRUCTION_4BIT+1
  2604  0016B0  0E01               	movlw	1
  2605  0016B2  6E28               	movwf	(??i1_LCD_INSTRUCTION_4BIT+2)^0,c
  2606  0016B4  2A27               	incf	(??i1_LCD_INSTRUCTION_4BIT+1)^0,f,c
  2607  0016B6  EF5F  F00B         	goto	i1u167_24
  2608  0016BA                     i1u167_25:
  2609  0016BA  90D8               	bcf	status,0,c
  2610  0016BC  3628               	rlcf	(??i1_LCD_INSTRUCTION_4BIT+2)^0,f,c
  2611  0016BE                     i1u167_24:
  2612  0016BE  2E27               	decfsz	(??i1_LCD_INSTRUCTION_4BIT+1)^0,f,c
  2613  0016C0  EF5D  F00B         	goto	i1u167_25
  2614  0016C4  5028               	movf	(??i1_LCD_INSTRUCTION_4BIT+2)^0,w,c
  2615  0016C6  1435               	andwf	i1LCD_INSTRUCTION_4BIT@data^0,w,c
  2616  0016C8  6E29               	movwf	(??i1_LCD_INSTRUCTION_4BIT+3)^0,c
  2617  0016CA  2A26               	incf	??i1_LCD_INSTRUCTION_4BIT^0,f,c
  2618  0016CC  EF6A  F00B         	goto	i1u168_24
  2619  0016D0                     i1u168_25:
  2620  0016D0  90D8               	bcf	status,0,c
  2621  0016D2  3229               	rrcf	(??i1_LCD_INSTRUCTION_4BIT+3)^0,f,c
  2622  0016D4                     i1u168_24:
  2623  0016D4  2E26               	decfsz	??i1_LCD_INSTRUCTION_4BIT^0,f,c
  2624  0016D6  EF68  F00B         	goto	i1u168_25
  2625  0016DA  5029               	movf	(??i1_LCD_INSTRUCTION_4BIT+3)^0,w,c
  2626  0016DC  6E2A               	movwf	(??i1_LCD_INSTRUCTION_4BIT+4)^0,c
  2627  0016DE  6A2B               	clrf	(??i1_LCD_INSTRUCTION_4BIT+5)^0,c
  2628  0016E0  90D8               	bcf	status,0,c
  2629  0016E2  3438               	rlcf	i1LCD_INSTRUCTION_4BIT@x_985^0,w,c
  2630  0016E4  6ED9               	movwf	fsr2l,c
  2631  0016E6  3439               	rlcf	(i1LCD_INSTRUCTION_4BIT@x_985+1)^0,w,c
  2632  0016E8  6EDA               	movwf	fsr2h,c
  2633  0016EA  0E2D               	movlw	low i1LCD_INSTRUCTION_4BIT@_4bit_
  2634  0016EC  26D9               	addwf	fsr2l,f,c
  2635  0016EE  0E00               	movlw	high i1LCD_INSTRUCTION_4BIT@_4bit_
  2636  0016F0  22DA               	addwfc	fsr2h,f,c
  2637  0016F2  C02A  FFDE         	movff	??i1_LCD_INSTRUCTION_4BIT+4,postinc2
  2638  0016F6  C02B  FFDD         	movff	??i1_LCD_INSTRUCTION_4BIT+5,postdec2
  2639  0016FA  4A38               	infsnz	i1LCD_INSTRUCTION_4BIT@x_985^0,f,c
  2640  0016FC  2A39               	incf	(i1LCD_INSTRUCTION_4BIT@x_985+1)^0,f,c
  2641  0016FE  BE39               	btfsc	(i1LCD_INSTRUCTION_4BIT@x_985+1)^0,7,c
  2642  001700  EF8B  F00B         	goto	i1u169_21
  2643  001704  5039               	movf	(i1LCD_INSTRUCTION_4BIT@x_985+1)^0,w,c
  2644  001706  E109               	bnz	i1u169_20
  2645  001708  0E04               	movlw	4
  2646  00170A  5C38               	subwf	i1LCD_INSTRUCTION_4BIT@x_985^0,w,c
  2647  00170C  A0D8               	btfss	status,0,c
  2648  00170E  EF8B  F00B         	goto	i1u169_21
  2649  001712  EF8D  F00B         	goto	i1u169_20
  2650  001716                     i1u169_21:
  2651  001716  EF54  F00B         	goto	i1l1471
  2652  00171A                     i1u169_20:
  2653  00171A                     
  2654                           ;LCD.h: 126: };LCD.h: 127: TRISCbits.RC0 = (char)_4bit_[0x00];
  2655  00171A  B02D               	btfsc	i1LCD_INSTRUCTION_4BIT@_4bit_^0,0,c
  2656  00171C  D002               	bra	i1u170_25
  2657  00171E  9094               	bcf	148,0,c	;volatile
  2658  001720  D001               	bra	i1u170_26
  2659  001722                     i1u170_25:
  2660  001722  8094               	bsf	148,0,c	;volatile
  2661  001724                     i1u170_26:
  2662                           
  2663                           ;LCD.h: 128: TRISCbits.RC1 = (char)_4bit_[0x01];
  2664  001724  B02F               	btfsc	(i1LCD_INSTRUCTION_4BIT@_4bit_+2)^0,0,c
  2665  001726  D002               	bra	i1u171_25
  2666  001728  9294               	bcf	148,1,c	;volatile
  2667  00172A  D001               	bra	i1u171_26
  2668  00172C                     i1u171_25:
  2669  00172C  8294               	bsf	148,1,c	;volatile
  2670  00172E                     i1u171_26:
  2671                           
  2672                           ;LCD.h: 129: TRISCbits.RC2 = (char)_4bit_[0x02];
  2673  00172E  B031               	btfsc	(i1LCD_INSTRUCTION_4BIT@_4bit_+4)^0,0,c
  2674  001730  D002               	bra	i1u172_25
  2675  001732  9494               	bcf	148,2,c	;volatile
  2676  001734  D001               	bra	i1u172_26
  2677  001736                     i1u172_25:
  2678  001736  8494               	bsf	148,2,c	;volatile
  2679  001738                     i1u172_26:
  2680                           
  2681                           ;LCD.h: 130: TRISCbits.RC3 = (char)_4bit_[0x03];
  2682  001738  B033               	btfsc	(i1LCD_INSTRUCTION_4BIT@_4bit_+6)^0,0,c
  2683  00173A  D002               	bra	i1u173_25
  2684  00173C  9694               	bcf	148,3,c	;volatile
  2685  00173E  D001               	bra	i1u173_26
  2686  001740                     i1u173_25:
  2687  001740  8694               	bsf	148,3,c	;volatile
  2688  001742                     i1u173_26:
  2689                           
  2690                           ;LCD.h: 131: PORTJbits.RJ1 = 0x00;
  2691  001742  9288               	bcf	136,1,c	;volatile
  2692                           
  2693                           ;LCD.h: 132: PORTBbits.RB3 = 0x00;
  2694  001744  9681               	bcf	129,3,c	;volatile
  2695                           
  2696                           ;LCD.h: 133: PORTJbits.RJ0 = 0x01;
  2697  001746  8088               	bsf	136,0,c	;volatile
  2698  001748                     
  2699                           ;LCD.h: 134: _delay((unsigned long)((2)*(0x12BFCE0/4000.0)));
  2700  001748  0E0D               	movlw	13
  2701  00174A  6E26               	movwf	??i1_LCD_INSTRUCTION_4BIT^0,c
  2702  00174C  0EC3               	movlw	195
  2703  00174E                     i1u208_27:
  2704  00174E  2EE8               	decfsz	wreg,f,c
  2705  001750  D7FE               	bra	i1u208_27
  2706  001752  2E26               	decfsz	??i1_LCD_INSTRUCTION_4BIT^0,f,c
  2707  001754  D7FC               	bra	i1u208_27
  2708  001756  F000               	nop	
  2709  001758                     
  2710                           ;LCD.h: 135: PORTJbits.RJ0 = 0x00;
  2711  001758  9088               	bcf	136,0,c	;volatile
  2712  00175A  0012               	return		;funcret
  2713  00175C                     __end_ofi1_LCD_INSTRUCTION_4BIT:
  2714                           	callstack 0
  2715                           
  2716 ;; *************** function _ISR_1 *****************
  2717 ;; Defined at:
  2718 ;;		line 135 in file "main.c"
  2719 ;; Parameters:    Size  Location     Type
  2720 ;;		None
  2721 ;; Auto vars:     Size  Location     Type
  2722 ;;		None
  2723 ;; Return value:  Size  Location     Type
  2724 ;;                  1    wreg      void 
  2725 ;; Registers used:
  2726 ;;		wreg, fsr2l, fsr2h, status,2, status,0, tblptrl, tblptrh, tblptru, cstack
  2727 ;; Tracked objects:
  2728 ;;		On entry : 0/0
  2729 ;;		On exit  : 0/0
  2730 ;;		Unchanged: 0/0
  2731 ;; Data sizes:     COMRAM   BANK0   BANK1   BANK2   BANK3   BANK4   BANK5   BANK6   BANK7   BANK8   BANK9  BANK10  BANK1
      +1  BANK12  BANK13  BANK14
  2732 ;;      Params:         0       0       0       0       0       0       0       0       0       0       0       0       
      +0       0       0       0
  2733 ;;      Locals:         0       0       0       0       0       0       0       0       0       0       0       0       
      +0       0       0       0
  2734 ;;      Temps:          7       0       0       0       0       0       0       0       0       0       0       0       
      +0       0       0       0
  2735 ;;      Totals:         7       0       0       0       0       0       0       0       0       0       0       0       
      +0       0       0       0
  2736 ;;Total ram usage:        7 bytes
  2737 ;; Hardware stack levels used: 1
  2738 ;; Hardware stack levels required when called: 2
  2739 ;; This function calls:
  2740 ;;		_LCD_20_LINE2
  2741 ;;		i2_LCD_DISPLAY
  2742 ;; This function is called by:
  2743 ;;		Interrupt level 2
  2744 ;; This function uses a non-reentrant model
  2745 ;;
  2746                           
  2747                           	psect	intcode
  2748  000008                     __pintcode:
  2749                           	callstack 0
  2750  000008                     _ISR_1:
  2751                           	callstack 23
  2752                           
  2753                           ;incstack = 0
  2754  000008  823A               	bsf	int$flags,1,c	;set compiler interrupt flag (level 2)
  2755  00000A  EF71  F00C         	goto	int_func
  2756                           
  2757                           	psect	intcode_body
  2758  0018E2                     __pintcode_body:
  2759                           	callstack 23
  2760  0018E2                     int_func:
  2761                           	callstack 23
  2762  0018E2  CFD9 F020          	movff	fsr2l,??_ISR_1+1
  2763  0018E6  CFDA F021          	movff	fsr2h,??_ISR_1+2
  2764  0018EA  CFF6 F022          	movff	tblptrl,??_ISR_1+3
  2765  0018EE  CFF7 F023          	movff	tblptrh,??_ISR_1+4
  2766  0018F2  CFF8 F024          	movff	tblptru,??_ISR_1+5
  2767  0018F6  CFF5 F025          	movff	tablat,??_ISR_1+6
  2768  0018FA                     
  2769                           ;main.c: 137: if(INTCONbits.INT0IF == 0x01 && INTCONbits.INT0IE == 0x01){
  2770  0018FA  A2F2               	btfss	242,1,c	;volatile
  2771  0018FC  EF82  F00C         	goto	i2u193_41
  2772  001900  EF84  F00C         	goto	i2u193_40
  2773  001904                     i2u193_41:
  2774  001904  EFA6  F00C         	goto	i2l122
  2775  001908                     i2u193_40:
  2776  001908  A8F2               	btfss	242,4,c	;volatile
  2777  00190A  EF89  F00C         	goto	i2u194_41
  2778  00190E  EF8B  F00C         	goto	i2u194_40
  2779  001912                     i2u194_41:
  2780  001912  EFA6  F00C         	goto	i2l122
  2781  001916                     i2u194_40:
  2782  001916                     
  2783                           ;main.c: 138: LCD_20_LINE2();
  2784  001916  EC21  F00E         	call	_LCD_20_LINE2	;wreg free
  2785  00191A                     
  2786                           ;main.c: 139: LCD_DISPLAY("INT0 Detected ");
  2787  00191A  0E14               	movlw	low STR_2
  2788  00191C  6E17               	movwf	i2LCD_DISPLAY@string^0,c
  2789  00191E  0E0F               	movlw	high STR_2
  2790  001920  6E18               	movwf	(i2LCD_DISPLAY@string+1)^0,c
  2791  001922  EC16  F00D         	call	i2_LCD_DISPLAY	;wreg free
  2792  001926                     
  2793                           ;main.c: 140: PORTDbits.RD7 = ~ (unsigned)PORTDbits.RD7;
  2794  001926  BE83               	btfsc	131,7,c	;volatile
  2795  001928  EF98  F00C         	goto	i2u195_41
  2796  00192C  EF9B  F00C         	goto	i2u195_40
  2797  001930                     i2u195_41:
  2798  001930  0E01               	movlw	1
  2799  001932  EF9C  F00C         	goto	i2u195_46
  2800  001936                     i2u195_40:
  2801  001936  0E00               	movlw	0
  2802  001938                     i2u195_46:
  2803  001938  0AFF               	xorlw	255
  2804  00193A  6E1F               	movwf	??_ISR_1^0,c
  2805  00193C  321F               	rrcf	??_ISR_1^0,f,c
  2806  00193E  321F               	rrcf	??_ISR_1^0,f,c
  2807  001940  5083               	movf	131,w,c	;volatile
  2808  001942  181F               	xorwf	??_ISR_1^0,w,c
  2809  001944  0B7F               	andlw	-129
  2810  001946  181F               	xorwf	??_ISR_1^0,w,c
  2811  001948  6E83               	movwf	131,c	;volatile
  2812  00194A                     
  2813                           ;main.c: 141: INTCONbits.INT0IF = 0x00;
  2814  00194A  92F2               	bcf	242,1,c	;volatile
  2815  00194C                     i2l122:
  2816  00194C  C025  FFF5         	movff	??_ISR_1+6,tablat
  2817  001950  C024  FFF8         	movff	??_ISR_1+5,tblptru
  2818  001954  C023  FFF7         	movff	??_ISR_1+4,tblptrh
  2819  001958  C022  FFF6         	movff	??_ISR_1+3,tblptrl
  2820  00195C  C021  FFDA         	movff	??_ISR_1+2,fsr2h
  2821  001960  C020  FFD9         	movff	??_ISR_1+1,fsr2l
  2822  001964  923A               	bcf	int$flags,1,c	;clear compiler interrupt flag (level 2)
  2823  001966  0011               	retfie		f
  2824  001968                     __end_of_ISR_1:
  2825                           	callstack 0
  2826                           
  2827 ;; *************** function i2_LCD_DISPLAY *****************
  2828 ;; Defined at:
  2829 ;;		line 149 in file "LCD.h"
  2830 ;; Parameters:    Size  Location     Type
  2831 ;;  string          2   22[COMRAM] PTR const unsigned char 
  2832 ;;		 -> STR_3(15), STR_2(15), STR_1(19), 
  2833 ;; Auto vars:     Size  Location     Type
  2834 ;;  x               2   28[COMRAM] int 
  2835 ;;  length          2   26[COMRAM] unsigned int 
  2836 ;; Return value:  Size  Location     Type
  2837 ;;                  1    wreg      void 
  2838 ;; Registers used:
  2839 ;;		wreg, fsr2l, fsr2h, status,2, status,0, tblptrl, tblptrh, tblptru, cstack
  2840 ;; Tracked objects:
  2841 ;;		On entry : 0/0
  2842 ;;		On exit  : 0/0
  2843 ;;		Unchanged: 0/0
  2844 ;; Data sizes:     COMRAM   BANK0   BANK1   BANK2   BANK3   BANK4   BANK5   BANK6   BANK7   BANK8   BANK9  BANK10  BANK1
      +1  BANK12  BANK13  BANK14
  2845 ;;      Params:         2       0       0       0       0       0       0       0       0       0       0       0       
      +0       0       0       0
  2846 ;;      Locals:         4       0       0       0       0       0       0       0       0       0       0       0       
      +0       0       0       0
  2847 ;;      Temps:          2       0       0       0       0       0       0       0       0       0       0       0       
      +0       0       0       0
  2848 ;;      Totals:         8       0       0       0       0       0       0       0       0       0       0       0       
      +0       0       0       0
  2849 ;;Total ram usage:        8 bytes
  2850 ;; Hardware stack levels used: 1
  2851 ;; Hardware stack levels required when called: 1
  2852 ;; This function calls:
  2853 ;;		i2_LCD_DATA
  2854 ;;		i2_strlen
  2855 ;; This function is called by:
  2856 ;;		_ISR_1
  2857 ;; This function uses a non-reentrant model
  2858 ;;
  2859                           
  2860                           	psect	text17
  2861  001A2C                     __ptext17:
  2862                           	callstack 0
  2863  001A2C                     i2_LCD_DISPLAY:
  2864                           	callstack 23
  2865  001A2C                     
  2866                           ;LCD.h: 150: unsigned int length = strlen(string);
  2867  001A2C  C017  F001         	movff	i2LCD_DISPLAY@string,i2strlen@s
  2868  001A30  C018  F002         	movff	i2LCD_DISPLAY@string+1,i2strlen@s+1
  2869  001A34  ECBC  F00D         	call	i2_strlen	;wreg free
  2870  001A38  C001  F01B         	movff	?i2_strlen,i2LCD_DISPLAY@length
  2871  001A3C  C002  F01C         	movff	?i2_strlen+1,i2LCD_DISPLAY@length+1
  2872  001A40                     
  2873                           ;LCD.h: 151: signed int x;;LCD.h: 152: for(x = 0x00 ; x < length ; x-=-0x01){
  2874  001A40  0E00               	movlw	0
  2875  001A42  6E1E               	movwf	(i2LCD_DISPLAY@x+1)^0,c
  2876  001A44  0E00               	movlw	0
  2877  001A46  6E1D               	movwf	i2LCD_DISPLAY@x^0,c
  2878  001A48  EF3A  F00D         	goto	i2l1609
  2879  001A4C                     i2l1605:
  2880                           
  2881                           ;LCD.h: 153: LCD_DATA(string[x],0x04);
  2882  001A4C  0E00               	movlw	0
  2883  001A4E  6E02               	movwf	(i2LCD_DATA@mode+1)^0,c
  2884  001A50  0E04               	movlw	4
  2885  001A52  6E01               	movwf	i2LCD_DATA@mode^0,c
  2886  001A54  501D               	movf	i2LCD_DISPLAY@x^0,w,c
  2887  001A56  2417               	addwf	i2LCD_DISPLAY@string^0,w,c
  2888  001A58  6E19               	movwf	??i2_LCD_DISPLAY^0,c
  2889  001A5A  501E               	movf	(i2LCD_DISPLAY@x+1)^0,w,c
  2890  001A5C  2018               	addwfc	(i2LCD_DISPLAY@string+1)^0,w,c
  2891  001A5E  6E1A               	movwf	(??i2_LCD_DISPLAY+1)^0,c
  2892  001A60  C019  FFF6         	movff	??i2_LCD_DISPLAY,tblptrl
  2893  001A64  C01A  FFF7         	movff	??i2_LCD_DISPLAY+1,tblptrh
  2894  001A68                     	if	0	;tblptru may be non-zero
  2895  001A68                     	endif
  2896  001A68                     	if	0	;tblptru may be non-zero
  2897  001A68                     	endif
  2898  001A68  0008               	tblrd		*
  2899  001A6A  50F5               	movf	tablat,w,c
  2900  001A6C  EC1E  F00A         	call	i2_LCD_DATA
  2901  001A70  4A1D               	infsnz	i2LCD_DISPLAY@x^0,f,c
  2902  001A72  2A1E               	incf	(i2LCD_DISPLAY@x+1)^0,f,c
  2903  001A74                     i2l1609:
  2904  001A74  501B               	movf	i2LCD_DISPLAY@length^0,w,c
  2905  001A76  5C1D               	subwf	i2LCD_DISPLAY@x^0,w,c
  2906  001A78  501C               	movf	(i2LCD_DISPLAY@length+1)^0,w,c
  2907  001A7A  581E               	subwfb	(i2LCD_DISPLAY@x+1)^0,w,c
  2908  001A7C  A0D8               	btfss	status,0,c
  2909  001A7E  EF43  F00D         	goto	i2u192_41
  2910  001A82  EF45  F00D         	goto	i2u192_40
  2911  001A86                     i2u192_41:
  2912  001A86  EF26  F00D         	goto	i2l1605
  2913  001A8A                     i2u192_40:
  2914  001A8A  0012               	return		;funcret
  2915  001A8C                     __end_ofi2_LCD_DISPLAY:
  2916                           	callstack 0
  2917                           
  2918 ;; *************** function i2_strlen *****************
  2919 ;; Defined at:
  2920 ;;		line 4 in file "C:\Program Files\Microchip\xc8\v2.36\pic\sources\c90\common\strlen.c"
  2921 ;; Parameters:    Size  Location     Type
  2922 ;;  s               2    0[COMRAM] PTR const unsigned char 
  2923 ;;		 -> STR_3(15), STR_2(15), STR_1(19), 
  2924 ;; Auto vars:     Size  Location     Type
  2925 ;;  cp              2    2[COMRAM] PTR const unsigned char 
  2926 ;;		 -> STR_3(15), STR_2(15), STR_1(19), 
  2927 ;; Return value:  Size  Location     Type
  2928 ;;                  2    0[COMRAM] unsigned int 
  2929 ;; Registers used:
  2930 ;;		wreg, status,2, status,0, tblptrl, tblptrh, tblptru
  2931 ;; Tracked objects:
  2932 ;;		On entry : 0/0
  2933 ;;		On exit  : 0/0
  2934 ;;		Unchanged: 0/0
  2935 ;; Data sizes:     COMRAM   BANK0   BANK1   BANK2   BANK3   BANK4   BANK5   BANK6   BANK7   BANK8   BANK9  BANK10  BANK1
      +1  BANK12  BANK13  BANK14
  2936 ;;      Params:         2       0       0       0       0       0       0       0       0       0       0       0       
      +0       0       0       0
  2937 ;;      Locals:         2       0       0       0       0       0       0       0       0       0       0       0       
      +0       0       0       0
  2938 ;;      Temps:          0       0       0       0       0       0       0       0       0       0       0       0       
      +0       0       0       0
  2939 ;;      Totals:         4       0       0       0       0       0       0       0       0       0       0       0       
      +0       0       0       0
  2940 ;;Total ram usage:        4 bytes
  2941 ;; Hardware stack levels used: 1
  2942 ;; This function calls:
  2943 ;;		Nothing
  2944 ;; This function is called by:
  2945 ;;		i2_LCD_DISPLAY
  2946 ;; This function uses a non-reentrant model
  2947 ;;
  2948                           
  2949                           	psect	text18
  2950  001B78                     __ptext18:
  2951                           	callstack 0
  2952  001B78                     i2_strlen:
  2953                           	callstack 23
  2954  001B78  C001  F003         	movff	i2strlen@s,i2strlen@cp
  2955  001B7C  C002  F004         	movff	i2strlen@s+1,i2strlen@cp+1
  2956  001B80  EFC4  F00D         	goto	i2l1533
  2957  001B84                     i2l1531:
  2958  001B84  4A03               	infsnz	i2strlen@cp^0,f,c
  2959  001B86  2A04               	incf	(i2strlen@cp+1)^0,f,c
  2960  001B88                     i2l1533:
  2961  001B88  C003  FFF6         	movff	i2strlen@cp,tblptrl
  2962  001B8C  C004  FFF7         	movff	i2strlen@cp+1,tblptrh
  2963  001B90                     	if	0	;tblptru may be non-zero
  2964  001B90                     	endif
  2965  001B90                     	if	0	;tblptru may be non-zero
  2966  001B90                     	endif
  2967  001B90  0008               	tblrd		*
  2968  001B92  50F5               	movf	tablat,w,c
  2969  001B94  0900               	iorlw	0
  2970  001B96  A4D8               	btfss	status,2,c
  2971  001B98  EFD0  F00D         	goto	i2u189_41
  2972  001B9C  EFD2  F00D         	goto	i2u189_40
  2973  001BA0                     i2u189_41:
  2974  001BA0  EFC2  F00D         	goto	i2l1531
  2975  001BA4                     i2u189_40:
  2976  001BA4  5001               	movf	i2strlen@s^0,w,c
  2977  001BA6  5C03               	subwf	i2strlen@cp^0,w,c
  2978  001BA8  6E01               	movwf	?i2_strlen^0,c
  2979  001BAA  5002               	movf	(i2strlen@s+1)^0,w,c
  2980  001BAC  5804               	subwfb	(i2strlen@cp+1)^0,w,c
  2981  001BAE  6E02               	movwf	(?i2_strlen+1)^0,c
  2982  001BB0  0012               	return		;funcret
  2983  001BB2                     __end_ofi2_strlen:
  2984                           	callstack 0
  2985                           
  2986 ;; *************** function i2_LCD_DATA *****************
  2987 ;; Defined at:
  2988 ;;		line 71 in file "LCD.h"
  2989 ;; Parameters:    Size  Location     Type
  2990 ;;  data            1    wreg     unsigned char 
  2991 ;;  mode            2    0[COMRAM] int 
  2992 ;; Auto vars:     Size  Location     Type
  2993 ;;  data            1    8[COMRAM] unsigned char 
  2994 ;;  _4bit_          8    9[COMRAM] unsigned int [4]
  2995 ;;  x               2   20[COMRAM] int 
  2996 ;;  x               2   18[COMRAM] int 
  2997 ;;  _data           1   17[COMRAM] unsigned char 
  2998 ;; Return value:  Size  Location     Type
  2999 ;;                  1    wreg      void 
  3000 ;; Registers used:
  3001 ;;		wreg, fsr2l, fsr2h, status,2, status,0
  3002 ;; Tracked objects:
  3003 ;;		On entry : 0/0
  3004 ;;		On exit  : 0/0
  3005 ;;		Unchanged: 0/0
  3006 ;; Data sizes:     COMRAM   BANK0   BANK1   BANK2   BANK3   BANK4   BANK5   BANK6   BANK7   BANK8   BANK9  BANK10  BANK1
      +1  BANK12  BANK13  BANK14
  3007 ;;      Params:         2       0       0       0       0       0       0       0       0       0       0       0       
      +0       0       0       0
  3008 ;;      Locals:        14       0       0       0       0       0       0       0       0       0       0       0       
      +0       0       0       0
  3009 ;;      Temps:          6       0       0       0       0       0       0       0       0       0       0       0       
      +0       0       0       0
  3010 ;;      Totals:        22       0       0       0       0       0       0       0       0       0       0       0       
      +0       0       0       0
  3011 ;;Total ram usage:       22 bytes
  3012 ;; Hardware stack levels used: 1
  3013 ;; This function calls:
  3014 ;;		Nothing
  3015 ;; This function is called by:
  3016 ;;		i2_LCD_DISPLAY
  3017 ;; This function uses a non-reentrant model
  3018 ;;
  3019                           
  3020                           	psect	text19
  3021  00143C                     __ptext19:
  3022                           	callstack 0
  3023  00143C                     i2_LCD_DATA:
  3024                           	callstack 23
  3025                           
  3026                           ;incstack = 0
  3027                           ;i2LCD_DATA@data stored from wreg
  3028  00143C  6E09               	movwf	i2LCD_DATA@data^0,c
  3029  00143E                     
  3030                           ;LCD.h: 72: unsigned char _data = data;
  3031  00143E  C009  F012         	movff	i2LCD_DATA@data,i2LCD_DATA@_data
  3032  001442                     
  3033                           ;LCD.h: 73: unsigned int _4bit_[0x04];;LCD.h: 74: if(mode == 0x04){
  3034  001442  0E04               	movlw	4
  3035  001444  1801               	xorwf	i2LCD_DATA@mode^0,w,c
  3036  001446  1002               	iorwf	(i2LCD_DATA@mode+1)^0,w,c
  3037  001448  A4D8               	btfss	status,2,c
  3038  00144A  EF29  F00A         	goto	i2u145_41
  3039  00144E  EF2B  F00A         	goto	i2u145_40
  3040  001452                     i2u145_41:
  3041  001452  EFEA  F00A         	goto	i2l65
  3042  001456                     i2u145_40:
  3043  001456                     
  3044                           ;LCD.h: 75: _data = _data>>0x04;
  3045  001456  3812               	swapf	i2LCD_DATA@_data^0,w,c
  3046  001458  0B0F               	andlw	15
  3047  00145A  6E12               	movwf	i2LCD_DATA@_data^0,c
  3048  00145C                     
  3049                           ;LCD.h: 76: for(int x =0x00; x < 0x04; x-=-0x01){
  3050  00145C  0E00               	movlw	0
  3051  00145E  6E14               	movwf	(i2LCD_DATA@x+1)^0,c
  3052  001460  0E00               	movlw	0
  3053  001462  6E13               	movwf	i2LCD_DATA@x^0,c
  3054  001464                     i2l1415:
  3055                           
  3056                           ;LCD.h: 77: _4bit_[x] = (_data & (0x01<<x))>>x;
  3057  001464  C013  F003         	movff	i2LCD_DATA@x,??i2_LCD_DATA
  3058  001468  C013  F004         	movff	i2LCD_DATA@x,??i2_LCD_DATA+1
  3059  00146C  0E01               	movlw	1
  3060  00146E  6E05               	movwf	(??i2_LCD_DATA+2)^0,c
  3061  001470  2A04               	incf	(??i2_LCD_DATA+1)^0,f,c
  3062  001472  EF3D  F00A         	goto	i2u146_44
  3063  001476                     i2u146_45:
  3064  001476  90D8               	bcf	status,0,c
  3065  001478  3605               	rlcf	(??i2_LCD_DATA+2)^0,f,c
  3066  00147A                     i2u146_44:
  3067  00147A  2E04               	decfsz	(??i2_LCD_DATA+1)^0,f,c
  3068  00147C  EF3B  F00A         	goto	i2u146_45
  3069  001480  5005               	movf	(??i2_LCD_DATA+2)^0,w,c
  3070  001482  1412               	andwf	i2LCD_DATA@_data^0,w,c
  3071  001484  6E06               	movwf	(??i2_LCD_DATA+3)^0,c
  3072  001486  2A03               	incf	??i2_LCD_DATA^0,f,c
  3073  001488  EF48  F00A         	goto	i2u147_44
  3074  00148C                     i2u147_45:
  3075  00148C  90D8               	bcf	status,0,c
  3076  00148E  3206               	rrcf	(??i2_LCD_DATA+3)^0,f,c
  3077  001490                     i2u147_44:
  3078  001490  2E03               	decfsz	??i2_LCD_DATA^0,f,c
  3079  001492  EF46  F00A         	goto	i2u147_45
  3080  001496  5006               	movf	(??i2_LCD_DATA+3)^0,w,c
  3081  001498  6E07               	movwf	(??i2_LCD_DATA+4)^0,c
  3082  00149A  6A08               	clrf	(??i2_LCD_DATA+5)^0,c
  3083  00149C  90D8               	bcf	status,0,c
  3084  00149E  3413               	rlcf	i2LCD_DATA@x^0,w,c
  3085  0014A0  6ED9               	movwf	fsr2l,c
  3086  0014A2  3414               	rlcf	(i2LCD_DATA@x+1)^0,w,c
  3087  0014A4  6EDA               	movwf	fsr2h,c
  3088  0014A6  0E0A               	movlw	low i2LCD_DATA@_4bit_
  3089  0014A8  26D9               	addwf	fsr2l,f,c
  3090  0014AA  0E00               	movlw	high i2LCD_DATA@_4bit_
  3091  0014AC  22DA               	addwfc	fsr2h,f,c
  3092  0014AE  C007  FFDE         	movff	??i2_LCD_DATA+4,postinc2
  3093  0014B2  C008  FFDD         	movff	??i2_LCD_DATA+5,postdec2
  3094  0014B6  4A13               	infsnz	i2LCD_DATA@x^0,f,c
  3095  0014B8  2A14               	incf	(i2LCD_DATA@x+1)^0,f,c
  3096  0014BA  BE14               	btfsc	(i2LCD_DATA@x+1)^0,7,c
  3097  0014BC  EF69  F00A         	goto	i2u148_41
  3098  0014C0  5014               	movf	(i2LCD_DATA@x+1)^0,w,c
  3099  0014C2  E109               	bnz	i2u148_40
  3100  0014C4  0E04               	movlw	4
  3101  0014C6  5C13               	subwf	i2LCD_DATA@x^0,w,c
  3102  0014C8  A0D8               	btfss	status,0,c
  3103  0014CA  EF69  F00A         	goto	i2u148_41
  3104  0014CE  EF6B  F00A         	goto	i2u148_40
  3105  0014D2                     i2u148_41:
  3106  0014D2  EF32  F00A         	goto	i2l1415
  3107  0014D6                     i2u148_40:
  3108  0014D6                     
  3109                           ;LCD.h: 78: };LCD.h: 79: TRISCbits.RC0 = (char)_4bit_[0x00];
  3110  0014D6  B00A               	btfsc	i2LCD_DATA@_4bit_^0,0,c
  3111  0014D8  D002               	bra	i2u149_45
  3112  0014DA  9094               	bcf	148,0,c	;volatile
  3113  0014DC  D001               	bra	i2u149_46
  3114  0014DE                     i2u149_45:
  3115  0014DE  8094               	bsf	148,0,c	;volatile
  3116  0014E0                     i2u149_46:
  3117                           
  3118                           ;LCD.h: 80: TRISCbits.RC1 = (char)_4bit_[0x01];
  3119  0014E0  B00C               	btfsc	(i2LCD_DATA@_4bit_+2)^0,0,c
  3120  0014E2  D002               	bra	i2u150_45
  3121  0014E4  9294               	bcf	148,1,c	;volatile
  3122  0014E6  D001               	bra	i2u150_46
  3123  0014E8                     i2u150_45:
  3124  0014E8  8294               	bsf	148,1,c	;volatile
  3125  0014EA                     i2u150_46:
  3126                           
  3127                           ;LCD.h: 81: TRISCbits.RC2 = (char)_4bit_[0x02];
  3128  0014EA  B00E               	btfsc	(i2LCD_DATA@_4bit_+4)^0,0,c
  3129  0014EC  D002               	bra	i2u151_45
  3130  0014EE  9494               	bcf	148,2,c	;volatile
  3131  0014F0  D001               	bra	i2u151_46
  3132  0014F2                     i2u151_45:
  3133  0014F2  8494               	bsf	148,2,c	;volatile
  3134  0014F4                     i2u151_46:
  3135                           
  3136                           ;LCD.h: 82: TRISCbits.RC3 = (char)_4bit_[0x03];
  3137  0014F4  B010               	btfsc	(i2LCD_DATA@_4bit_+6)^0,0,c
  3138  0014F6  D002               	bra	i2u152_45
  3139  0014F8  9694               	bcf	148,3,c	;volatile
  3140  0014FA  D001               	bra	i2u152_46
  3141  0014FC                     i2u152_45:
  3142  0014FC  8694               	bsf	148,3,c	;volatile
  3143  0014FE                     i2u152_46:
  3144                           
  3145                           ;LCD.h: 83: PORTJbits.RJ1 = 0x01;
  3146  0014FE  8288               	bsf	136,1,c	;volatile
  3147                           
  3148                           ;LCD.h: 84: PORTBbits.RB3 = 0x00;
  3149  001500  9681               	bcf	129,3,c	;volatile
  3150                           
  3151                           ;LCD.h: 85: PORTJbits.RJ0 = 0x01;
  3152  001502  8088               	bsf	136,0,c	;volatile
  3153  001504                     
  3154                           ;LCD.h: 86: _delay((unsigned long)((2)*(0x12BFCE0/4000.0)));
  3155  001504  0E0D               	movlw	13
  3156  001506  6E03               	movwf	??i2_LCD_DATA^0,c
  3157  001508  0EC3               	movlw	195
  3158  00150A                     i2u209_47:
  3159  00150A  2EE8               	decfsz	wreg,f,c
  3160  00150C  D7FE               	bra	i2u209_47
  3161  00150E  2E03               	decfsz	??i2_LCD_DATA^0,f,c
  3162  001510  D7FC               	bra	i2u209_47
  3163  001512  F000               	nop	
  3164  001514                     
  3165                           ;LCD.h: 87: PORTJbits.RJ0 = 0x00;
  3166  001514  9088               	bcf	136,0,c	;volatile
  3167  001516                     
  3168                           ;LCD.h: 89: _data = data;
  3169  001516  C009  F012         	movff	i2LCD_DATA@data,i2LCD_DATA@_data
  3170  00151A                     
  3171                           ;LCD.h: 90: for(int x = 0x00; x< 0x04; x-=-0x01){
  3172  00151A  0E00               	movlw	0
  3173  00151C  6E16               	movwf	(i2LCD_DATA@x_979+1)^0,c
  3174  00151E  0E00               	movlw	0
  3175  001520  6E15               	movwf	i2LCD_DATA@x_979^0,c
  3176  001522                     i2l1433:
  3177                           
  3178                           ;LCD.h: 91: _4bit_[x] = (_data & (0x01<<x))>>x;
  3179  001522  C015  F003         	movff	i2LCD_DATA@x_979,??i2_LCD_DATA
  3180  001526  C015  F004         	movff	i2LCD_DATA@x_979,??i2_LCD_DATA+1
  3181  00152A  0E01               	movlw	1
  3182  00152C  6E05               	movwf	(??i2_LCD_DATA+2)^0,c
  3183  00152E  2A04               	incf	(??i2_LCD_DATA+1)^0,f,c
  3184  001530  EF9C  F00A         	goto	i2u153_44
  3185  001534                     i2u153_45:
  3186  001534  90D8               	bcf	status,0,c
  3187  001536  3605               	rlcf	(??i2_LCD_DATA+2)^0,f,c
  3188  001538                     i2u153_44:
  3189  001538  2E04               	decfsz	(??i2_LCD_DATA+1)^0,f,c
  3190  00153A  EF9A  F00A         	goto	i2u153_45
  3191  00153E  5005               	movf	(??i2_LCD_DATA+2)^0,w,c
  3192  001540  1412               	andwf	i2LCD_DATA@_data^0,w,c
  3193  001542  6E06               	movwf	(??i2_LCD_DATA+3)^0,c
  3194  001544  2A03               	incf	??i2_LCD_DATA^0,f,c
  3195  001546  EFA7  F00A         	goto	i2u154_44
  3196  00154A                     i2u154_45:
  3197  00154A  90D8               	bcf	status,0,c
  3198  00154C  3206               	rrcf	(??i2_LCD_DATA+3)^0,f,c
  3199  00154E                     i2u154_44:
  3200  00154E  2E03               	decfsz	??i2_LCD_DATA^0,f,c
  3201  001550  EFA5  F00A         	goto	i2u154_45
  3202  001554  5006               	movf	(??i2_LCD_DATA+3)^0,w,c
  3203  001556  6E07               	movwf	(??i2_LCD_DATA+4)^0,c
  3204  001558  6A08               	clrf	(??i2_LCD_DATA+5)^0,c
  3205  00155A  90D8               	bcf	status,0,c
  3206  00155C  3415               	rlcf	i2LCD_DATA@x_979^0,w,c
  3207  00155E  6ED9               	movwf	fsr2l,c
  3208  001560  3416               	rlcf	(i2LCD_DATA@x_979+1)^0,w,c
  3209  001562  6EDA               	movwf	fsr2h,c
  3210  001564  0E0A               	movlw	low i2LCD_DATA@_4bit_
  3211  001566  26D9               	addwf	fsr2l,f,c
  3212  001568  0E00               	movlw	high i2LCD_DATA@_4bit_
  3213  00156A  22DA               	addwfc	fsr2h,f,c
  3214  00156C  C007  FFDE         	movff	??i2_LCD_DATA+4,postinc2
  3215  001570  C008  FFDD         	movff	??i2_LCD_DATA+5,postdec2
  3216  001574  4A15               	infsnz	i2LCD_DATA@x_979^0,f,c
  3217  001576  2A16               	incf	(i2LCD_DATA@x_979+1)^0,f,c
  3218  001578  BE16               	btfsc	(i2LCD_DATA@x_979+1)^0,7,c
  3219  00157A  EFC8  F00A         	goto	i2u155_41
  3220  00157E  5016               	movf	(i2LCD_DATA@x_979+1)^0,w,c
  3221  001580  E109               	bnz	i2u155_40
  3222  001582  0E04               	movlw	4
  3223  001584  5C15               	subwf	i2LCD_DATA@x_979^0,w,c
  3224  001586  A0D8               	btfss	status,0,c
  3225  001588  EFC8  F00A         	goto	i2u155_41
  3226  00158C  EFCA  F00A         	goto	i2u155_40
  3227  001590                     i2u155_41:
  3228  001590  EF91  F00A         	goto	i2l1433
  3229  001594                     i2u155_40:
  3230  001594                     
  3231                           ;LCD.h: 92: };LCD.h: 93: TRISCbits.RC0 = (char)_4bit_[0x00];
  3232  001594  B00A               	btfsc	i2LCD_DATA@_4bit_^0,0,c
  3233  001596  D002               	bra	i2u156_45
  3234  001598  9094               	bcf	148,0,c	;volatile
  3235  00159A  D001               	bra	i2u156_46
  3236  00159C                     i2u156_45:
  3237  00159C  8094               	bsf	148,0,c	;volatile
  3238  00159E                     i2u156_46:
  3239                           
  3240                           ;LCD.h: 94: TRISCbits.RC1 = (char)_4bit_[0x01];
  3241  00159E  B00C               	btfsc	(i2LCD_DATA@_4bit_+2)^0,0,c
  3242  0015A0  D002               	bra	i2u157_45
  3243  0015A2  9294               	bcf	148,1,c	;volatile
  3244  0015A4  D001               	bra	i2u157_46
  3245  0015A6                     i2u157_45:
  3246  0015A6  8294               	bsf	148,1,c	;volatile
  3247  0015A8                     i2u157_46:
  3248                           
  3249                           ;LCD.h: 95: TRISCbits.RC2 = (char)_4bit_[0x02];
  3250  0015A8  B00E               	btfsc	(i2LCD_DATA@_4bit_+4)^0,0,c
  3251  0015AA  D002               	bra	i2u158_45
  3252  0015AC  9494               	bcf	148,2,c	;volatile
  3253  0015AE  D001               	bra	i2u158_46
  3254  0015B0                     i2u158_45:
  3255  0015B0  8494               	bsf	148,2,c	;volatile
  3256  0015B2                     i2u158_46:
  3257                           
  3258                           ;LCD.h: 96: TRISCbits.RC3 = (char)_4bit_[0x03];
  3259  0015B2  B010               	btfsc	(i2LCD_DATA@_4bit_+6)^0,0,c
  3260  0015B4  D002               	bra	i2u159_45
  3261  0015B6  9694               	bcf	148,3,c	;volatile
  3262  0015B8  D001               	bra	i2u159_46
  3263  0015BA                     i2u159_45:
  3264  0015BA  8694               	bsf	148,3,c	;volatile
  3265  0015BC                     i2u159_46:
  3266                           
  3267                           ;LCD.h: 97: PORTJbits.RJ1 = 0x01;
  3268  0015BC  8288               	bsf	136,1,c	;volatile
  3269                           
  3270                           ;LCD.h: 98: PORTBbits.RB3 = 0x00;
  3271  0015BE  9681               	bcf	129,3,c	;volatile
  3272                           
  3273                           ;LCD.h: 99: PORTJbits.RJ0 = 0x01;
  3274  0015C0  8088               	bsf	136,0,c	;volatile
  3275  0015C2                     
  3276                           ;LCD.h: 100: _delay((unsigned long)((2)*(0x12BFCE0/4000.0)));
  3277  0015C2  0E0D               	movlw	13
  3278  0015C4  6E03               	movwf	??i2_LCD_DATA^0,c
  3279  0015C6  0EC3               	movlw	195
  3280  0015C8                     i2u210_47:
  3281  0015C8  2EE8               	decfsz	wreg,f,c
  3282  0015CA  D7FE               	bra	i2u210_47
  3283  0015CC  2E03               	decfsz	??i2_LCD_DATA^0,f,c
  3284  0015CE  D7FC               	bra	i2u210_47
  3285  0015D0  F000               	nop	
  3286  0015D2                     
  3287                           ;LCD.h: 101: PORTJbits.RJ0 = 0x00;
  3288  0015D2  9088               	bcf	136,0,c	;volatile
  3289  0015D4                     i2l65:
  3290  0015D4  0012               	return		;funcret
  3291  0015D6                     __end_ofi2_LCD_DATA:
  3292                           	callstack 0
  3293                           
  3294 ;; *************** function _LCD_20_LINE2 *****************
  3295 ;; Defined at:
  3296 ;;		line 165 in file "LCD.h"
  3297 ;; Parameters:    Size  Location     Type
  3298 ;;		None
  3299 ;; Auto vars:     Size  Location     Type
  3300 ;;		None
  3301 ;; Return value:  Size  Location     Type
  3302 ;;                  1    wreg      void 
  3303 ;; Registers used:
  3304 ;;		wreg, fsr2l, fsr2h, status,2, status,0, cstack
  3305 ;; Tracked objects:
  3306 ;;		On entry : 0/0
  3307 ;;		On exit  : 0/0
  3308 ;;		Unchanged: 0/0
  3309 ;; Data sizes:     COMRAM   BANK0   BANK1   BANK2   BANK3   BANK4   BANK5   BANK6   BANK7   BANK8   BANK9  BANK10  BANK1
      +1  BANK12  BANK13  BANK14
  3310 ;;      Params:         0       0       0       0       0       0       0       0       0       0       0       0       
      +0       0       0       0
  3311 ;;      Locals:         0       0       0       0       0       0       0       0       0       0       0       0       
      +0       0       0       0
  3312 ;;      Temps:          0       0       0       0       0       0       0       0       0       0       0       0       
      +0       0       0       0
  3313 ;;      Totals:         0       0       0       0       0       0       0       0       0       0       0       0       
      +0       0       0       0
  3314 ;;Total ram usage:        0 bytes
  3315 ;; Hardware stack levels used: 1
  3316 ;; Hardware stack levels required when called: 1
  3317 ;; This function calls:
  3318 ;;		i2_LCD_INSTRUCTION_4BIT
  3319 ;; This function is called by:
  3320 ;;		_ISR_1
  3321 ;; This function uses a non-reentrant model
  3322 ;;
  3323                           
  3324                           	psect	text20
  3325  001C42                     __ptext20:
  3326                           	callstack 0
  3327  001C42                     _LCD_20_LINE2:
  3328                           	callstack 23
  3329  001C42  0EC0               	movlw	192
  3330  001C44  ECAE  F00B         	call	i2_LCD_INSTRUCTION_4BIT
  3331  001C48  0012               	return		;funcret
  3332  001C4A                     __end_of_LCD_20_LINE2:
  3333                           	callstack 0
  3334                           
  3335 ;; *************** function i2_LCD_INSTRUCTION_4BIT *****************
  3336 ;; Defined at:
  3337 ;;		line 106 in file "LCD.h"
  3338 ;; Parameters:    Size  Location     Type
  3339 ;;  instruction     1    wreg     unsigned char 
  3340 ;; Auto vars:     Size  Location     Type
  3341 ;;  instruction     1    6[COMRAM] unsigned char 
  3342 ;;  _4bit_          8    7[COMRAM] int [4]
  3343 ;;  x               2   18[COMRAM] int 
  3344 ;;  x               2   16[COMRAM] int 
  3345 ;;  data            1   15[COMRAM] unsigned char 
  3346 ;; Return value:  Size  Location     Type
  3347 ;;                  1    wreg      void 
  3348 ;; Registers used:
  3349 ;;		wreg, fsr2l, fsr2h, status,2, status,0
  3350 ;; Tracked objects:
  3351 ;;		On entry : 0/0
  3352 ;;		On exit  : 0/0
  3353 ;;		Unchanged: 0/0
  3354 ;; Data sizes:     COMRAM   BANK0   BANK1   BANK2   BANK3   BANK4   BANK5   BANK6   BANK7   BANK8   BANK9  BANK10  BANK1
      +1  BANK12  BANK13  BANK14
  3355 ;;      Params:         0       0       0       0       0       0       0       0       0       0       0       0       
      +0       0       0       0
  3356 ;;      Locals:        14       0       0       0       0       0       0       0       0       0       0       0       
      +0       0       0       0
  3357 ;;      Temps:          6       0       0       0       0       0       0       0       0       0       0       0       
      +0       0       0       0
  3358 ;;      Totals:        20       0       0       0       0       0       0       0       0       0       0       0       
      +0       0       0       0
  3359 ;;Total ram usage:       20 bytes
  3360 ;; Hardware stack levels used: 1
  3361 ;; This function calls:
  3362 ;;		Nothing
  3363 ;; This function is called by:
  3364 ;;		_LCD_20_LINE2
  3365 ;; This function uses a non-reentrant model
  3366 ;;
  3367                           
  3368                           	psect	text21
  3369  00175C                     __ptext21:
  3370                           	callstack 0
  3371  00175C                     i2_LCD_INSTRUCTION_4BIT:
  3372                           	callstack 23
  3373                           
  3374                           ;incstack = 0
  3375                           ;i2LCD_INSTRUCTION_4BIT@instruction stored from wreg
  3376  00175C  6E07               	movwf	i2LCD_INSTRUCTION_4BIT@instruction^0,c
  3377  00175E                     
  3378                           ;LCD.h: 107: int _4bit_[0x04];;LCD.h: 108: unsigned char data = instruction;
  3379  00175E  C007  F010         	movff	i2LCD_INSTRUCTION_4BIT@instruction,i2LCD_INSTRUCTION_4BIT@data
  3380  001762                     
  3381                           ;LCD.h: 109: data = data>>0x04;
  3382  001762  3810               	swapf	i2LCD_INSTRUCTION_4BIT@data^0,w,c
  3383  001764  0B0F               	andlw	15
  3384  001766  6E10               	movwf	i2LCD_INSTRUCTION_4BIT@data^0,c
  3385  001768                     
  3386                           ;LCD.h: 110: for(int x =0x00; x < 0x04; x-=-0x01){
  3387  001768  0E00               	movlw	0
  3388  00176A  6E12               	movwf	(i2LCD_INSTRUCTION_4BIT@x+1)^0,c
  3389  00176C  0E00               	movlw	0
  3390  00176E  6E11               	movwf	i2LCD_INSTRUCTION_4BIT@x^0,c
  3391  001770                     i2l1491:
  3392                           
  3393                           ;LCD.h: 111: _4bit_[x] = (data & (0x01<<x))>>x;
  3394  001770  C011  F001         	movff	i2LCD_INSTRUCTION_4BIT@x,??i2_LCD_INSTRUCTION_4BIT
  3395  001774  C011  F002         	movff	i2LCD_INSTRUCTION_4BIT@x,??i2_LCD_INSTRUCTION_4BIT+1
  3396  001778  0E01               	movlw	1
  3397  00177A  6E03               	movwf	(??i2_LCD_INSTRUCTION_4BIT+2)^0,c
  3398  00177C  2A02               	incf	(??i2_LCD_INSTRUCTION_4BIT+1)^0,f,c
  3399  00177E  EFC3  F00B         	goto	i2u174_44
  3400  001782                     i2u174_45:
  3401  001782  90D8               	bcf	status,0,c
  3402  001784  3603               	rlcf	(??i2_LCD_INSTRUCTION_4BIT+2)^0,f,c
  3403  001786                     i2u174_44:
  3404  001786  2E02               	decfsz	(??i2_LCD_INSTRUCTION_4BIT+1)^0,f,c
  3405  001788  EFC1  F00B         	goto	i2u174_45
  3406  00178C  5003               	movf	(??i2_LCD_INSTRUCTION_4BIT+2)^0,w,c
  3407  00178E  1410               	andwf	i2LCD_INSTRUCTION_4BIT@data^0,w,c
  3408  001790  6E04               	movwf	(??i2_LCD_INSTRUCTION_4BIT+3)^0,c
  3409  001792  2A01               	incf	??i2_LCD_INSTRUCTION_4BIT^0,f,c
  3410  001794  EFCE  F00B         	goto	i2u175_44
  3411  001798                     i2u175_45:
  3412  001798  90D8               	bcf	status,0,c
  3413  00179A  3204               	rrcf	(??i2_LCD_INSTRUCTION_4BIT+3)^0,f,c
  3414  00179C                     i2u175_44:
  3415  00179C  2E01               	decfsz	??i2_LCD_INSTRUCTION_4BIT^0,f,c
  3416  00179E  EFCC  F00B         	goto	i2u175_45
  3417  0017A2  5004               	movf	(??i2_LCD_INSTRUCTION_4BIT+3)^0,w,c
  3418  0017A4  6E05               	movwf	(??i2_LCD_INSTRUCTION_4BIT+4)^0,c
  3419  0017A6  6A06               	clrf	(??i2_LCD_INSTRUCTION_4BIT+5)^0,c
  3420  0017A8  90D8               	bcf	status,0,c
  3421  0017AA  3411               	rlcf	i2LCD_INSTRUCTION_4BIT@x^0,w,c
  3422  0017AC  6ED9               	movwf	fsr2l,c
  3423  0017AE  3412               	rlcf	(i2LCD_INSTRUCTION_4BIT@x+1)^0,w,c
  3424  0017B0  6EDA               	movwf	fsr2h,c
  3425  0017B2  0E08               	movlw	low i2LCD_INSTRUCTION_4BIT@_4bit_
  3426  0017B4  26D9               	addwf	fsr2l,f,c
  3427  0017B6  0E00               	movlw	high i2LCD_INSTRUCTION_4BIT@_4bit_
  3428  0017B8  22DA               	addwfc	fsr2h,f,c
  3429  0017BA  C005  FFDE         	movff	??i2_LCD_INSTRUCTION_4BIT+4,postinc2
  3430  0017BE  C006  FFDD         	movff	??i2_LCD_INSTRUCTION_4BIT+5,postdec2
  3431  0017C2  4A11               	infsnz	i2LCD_INSTRUCTION_4BIT@x^0,f,c
  3432  0017C4  2A12               	incf	(i2LCD_INSTRUCTION_4BIT@x+1)^0,f,c
  3433  0017C6  BE12               	btfsc	(i2LCD_INSTRUCTION_4BIT@x+1)^0,7,c
  3434  0017C8  EFEF  F00B         	goto	i2u176_41
  3435  0017CC  5012               	movf	(i2LCD_INSTRUCTION_4BIT@x+1)^0,w,c
  3436  0017CE  E109               	bnz	i2u176_40
  3437  0017D0  0E04               	movlw	4
  3438  0017D2  5C11               	subwf	i2LCD_INSTRUCTION_4BIT@x^0,w,c
  3439  0017D4  A0D8               	btfss	status,0,c
  3440  0017D6  EFEF  F00B         	goto	i2u176_41
  3441  0017DA  EFF1  F00B         	goto	i2u176_40
  3442  0017DE                     i2u176_41:
  3443  0017DE  EFB8  F00B         	goto	i2l1491
  3444  0017E2                     i2u176_40:
  3445  0017E2                     
  3446                           ;LCD.h: 112: };LCD.h: 113: TRISCbits.RC0 = (char)_4bit_[0x00];
  3447  0017E2  B008               	btfsc	i2LCD_INSTRUCTION_4BIT@_4bit_^0,0,c
  3448  0017E4  D002               	bra	i2u177_45
  3449  0017E6  9094               	bcf	148,0,c	;volatile
  3450  0017E8  D001               	bra	i2u177_46
  3451  0017EA                     i2u177_45:
  3452  0017EA  8094               	bsf	148,0,c	;volatile
  3453  0017EC                     i2u177_46:
  3454                           
  3455                           ;LCD.h: 114: TRISCbits.RC1 = (char)_4bit_[0x01];
  3456  0017EC  B00A               	btfsc	(i2LCD_INSTRUCTION_4BIT@_4bit_+2)^0,0,c
  3457  0017EE  D002               	bra	i2u178_45
  3458  0017F0  9294               	bcf	148,1,c	;volatile
  3459  0017F2  D001               	bra	i2u178_46
  3460  0017F4                     i2u178_45:
  3461  0017F4  8294               	bsf	148,1,c	;volatile
  3462  0017F6                     i2u178_46:
  3463                           
  3464                           ;LCD.h: 115: TRISCbits.RC2 = (char)_4bit_[0x02];
  3465  0017F6  B00C               	btfsc	(i2LCD_INSTRUCTION_4BIT@_4bit_+4)^0,0,c
  3466  0017F8  D002               	bra	i2u179_45
  3467  0017FA  9494               	bcf	148,2,c	;volatile
  3468  0017FC  D001               	bra	i2u179_46
  3469  0017FE                     i2u179_45:
  3470  0017FE  8494               	bsf	148,2,c	;volatile
  3471  001800                     i2u179_46:
  3472                           
  3473                           ;LCD.h: 116: TRISCbits.RC3 = (char)_4bit_[0x03];
  3474  001800  B00E               	btfsc	(i2LCD_INSTRUCTION_4BIT@_4bit_+6)^0,0,c
  3475  001802  D002               	bra	i2u180_45
  3476  001804  9694               	bcf	148,3,c	;volatile
  3477  001806  D001               	bra	i2u180_46
  3478  001808                     i2u180_45:
  3479  001808  8694               	bsf	148,3,c	;volatile
  3480  00180A                     i2u180_46:
  3481                           
  3482                           ;LCD.h: 117: PORTJbits.RJ1 = 0x00;
  3483  00180A  9288               	bcf	136,1,c	;volatile
  3484                           
  3485                           ;LCD.h: 118: PORTBbits.RB3 = 0x00;
  3486  00180C  9681               	bcf	129,3,c	;volatile
  3487                           
  3488                           ;LCD.h: 119: PORTJbits.RJ0 = 0x01;
  3489  00180E  8088               	bsf	136,0,c	;volatile
  3490  001810                     
  3491                           ;LCD.h: 120: _delay((unsigned long)((2)*(0x12BFCE0/4000.0)));
  3492  001810  0E0D               	movlw	13
  3493  001812  6E01               	movwf	??i2_LCD_INSTRUCTION_4BIT^0,c
  3494  001814  0EC3               	movlw	195
  3495  001816                     i2u211_47:
  3496  001816  2EE8               	decfsz	wreg,f,c
  3497  001818  D7FE               	bra	i2u211_47
  3498  00181A  2E01               	decfsz	??i2_LCD_INSTRUCTION_4BIT^0,f,c
  3499  00181C  D7FC               	bra	i2u211_47
  3500  00181E  F000               	nop	
  3501  001820                     
  3502                           ;LCD.h: 121: PORTJbits.RJ0 = 0x00;
  3503  001820  9088               	bcf	136,0,c	;volatile
  3504  001822                     
  3505                           ;LCD.h: 123: data = instruction;
  3506  001822  C007  F010         	movff	i2LCD_INSTRUCTION_4BIT@instruction,i2LCD_INSTRUCTION_4BIT@data
  3507  001826                     
  3508                           ;LCD.h: 124: for(int x = 0x00; x< 0x04; x-=-0x01){
  3509  001826  0E00               	movlw	0
  3510  001828  6E14               	movwf	(i2LCD_INSTRUCTION_4BIT@x_985+1)^0,c
  3511  00182A  0E00               	movlw	0
  3512  00182C  6E13               	movwf	i2LCD_INSTRUCTION_4BIT@x_985^0,c
  3513  00182E                     i2l1509:
  3514                           
  3515                           ;LCD.h: 125: _4bit_[x] = (data & (0x01<<x))>>x;
  3516  00182E  C013  F001         	movff	i2LCD_INSTRUCTION_4BIT@x_985,??i2_LCD_INSTRUCTION_4BIT
  3517  001832  C013  F002         	movff	i2LCD_INSTRUCTION_4BIT@x_985,??i2_LCD_INSTRUCTION_4BIT+1
  3518  001836  0E01               	movlw	1
  3519  001838  6E03               	movwf	(??i2_LCD_INSTRUCTION_4BIT+2)^0,c
  3520  00183A  2A02               	incf	(??i2_LCD_INSTRUCTION_4BIT+1)^0,f,c
  3521  00183C  EF22  F00C         	goto	i2u181_44
  3522  001840                     i2u181_45:
  3523  001840  90D8               	bcf	status,0,c
  3524  001842  3603               	rlcf	(??i2_LCD_INSTRUCTION_4BIT+2)^0,f,c
  3525  001844                     i2u181_44:
  3526  001844  2E02               	decfsz	(??i2_LCD_INSTRUCTION_4BIT+1)^0,f,c
  3527  001846  EF20  F00C         	goto	i2u181_45
  3528  00184A  5003               	movf	(??i2_LCD_INSTRUCTION_4BIT+2)^0,w,c
  3529  00184C  1410               	andwf	i2LCD_INSTRUCTION_4BIT@data^0,w,c
  3530  00184E  6E04               	movwf	(??i2_LCD_INSTRUCTION_4BIT+3)^0,c
  3531  001850  2A01               	incf	??i2_LCD_INSTRUCTION_4BIT^0,f,c
  3532  001852  EF2D  F00C         	goto	i2u182_44
  3533  001856                     i2u182_45:
  3534  001856  90D8               	bcf	status,0,c
  3535  001858  3204               	rrcf	(??i2_LCD_INSTRUCTION_4BIT+3)^0,f,c
  3536  00185A                     i2u182_44:
  3537  00185A  2E01               	decfsz	??i2_LCD_INSTRUCTION_4BIT^0,f,c
  3538  00185C  EF2B  F00C         	goto	i2u182_45
  3539  001860  5004               	movf	(??i2_LCD_INSTRUCTION_4BIT+3)^0,w,c
  3540  001862  6E05               	movwf	(??i2_LCD_INSTRUCTION_4BIT+4)^0,c
  3541  001864  6A06               	clrf	(??i2_LCD_INSTRUCTION_4BIT+5)^0,c
  3542  001866  90D8               	bcf	status,0,c
  3543  001868  3413               	rlcf	i2LCD_INSTRUCTION_4BIT@x_985^0,w,c
  3544  00186A  6ED9               	movwf	fsr2l,c
  3545  00186C  3414               	rlcf	(i2LCD_INSTRUCTION_4BIT@x_985+1)^0,w,c
  3546  00186E  6EDA               	movwf	fsr2h,c
  3547  001870  0E08               	movlw	low i2LCD_INSTRUCTION_4BIT@_4bit_
  3548  001872  26D9               	addwf	fsr2l,f,c
  3549  001874  0E00               	movlw	high i2LCD_INSTRUCTION_4BIT@_4bit_
  3550  001876  22DA               	addwfc	fsr2h,f,c
  3551  001878  C005  FFDE         	movff	??i2_LCD_INSTRUCTION_4BIT+4,postinc2
  3552  00187C  C006  FFDD         	movff	??i2_LCD_INSTRUCTION_4BIT+5,postdec2
  3553  001880  4A13               	infsnz	i2LCD_INSTRUCTION_4BIT@x_985^0,f,c
  3554  001882  2A14               	incf	(i2LCD_INSTRUCTION_4BIT@x_985+1)^0,f,c
  3555  001884  BE14               	btfsc	(i2LCD_INSTRUCTION_4BIT@x_985+1)^0,7,c
  3556  001886  EF4E  F00C         	goto	i2u183_41
  3557  00188A  5014               	movf	(i2LCD_INSTRUCTION_4BIT@x_985+1)^0,w,c
  3558  00188C  E109               	bnz	i2u183_40
  3559  00188E  0E04               	movlw	4
  3560  001890  5C13               	subwf	i2LCD_INSTRUCTION_4BIT@x_985^0,w,c
  3561  001892  A0D8               	btfss	status,0,c
  3562  001894  EF4E  F00C         	goto	i2u183_41
  3563  001898  EF50  F00C         	goto	i2u183_40
  3564  00189C                     i2u183_41:
  3565  00189C  EF17  F00C         	goto	i2l1509
  3566  0018A0                     i2u183_40:
  3567  0018A0                     
  3568                           ;LCD.h: 126: };LCD.h: 127: TRISCbits.RC0 = (char)_4bit_[0x00];
  3569  0018A0  B008               	btfsc	i2LCD_INSTRUCTION_4BIT@_4bit_^0,0,c
  3570  0018A2  D002               	bra	i2u184_45
  3571  0018A4  9094               	bcf	148,0,c	;volatile
  3572  0018A6  D001               	bra	i2u184_46
  3573  0018A8                     i2u184_45:
  3574  0018A8  8094               	bsf	148,0,c	;volatile
  3575  0018AA                     i2u184_46:
  3576                           
  3577                           ;LCD.h: 128: TRISCbits.RC1 = (char)_4bit_[0x01];
  3578  0018AA  B00A               	btfsc	(i2LCD_INSTRUCTION_4BIT@_4bit_+2)^0,0,c
  3579  0018AC  D002               	bra	i2u185_45
  3580  0018AE  9294               	bcf	148,1,c	;volatile
  3581  0018B0  D001               	bra	i2u185_46
  3582  0018B2                     i2u185_45:
  3583  0018B2  8294               	bsf	148,1,c	;volatile
  3584  0018B4                     i2u185_46:
  3585                           
  3586                           ;LCD.h: 129: TRISCbits.RC2 = (char)_4bit_[0x02];
  3587  0018B4  B00C               	btfsc	(i2LCD_INSTRUCTION_4BIT@_4bit_+4)^0,0,c
  3588  0018B6  D002               	bra	i2u186_45
  3589  0018B8  9494               	bcf	148,2,c	;volatile
  3590  0018BA  D001               	bra	i2u186_46
  3591  0018BC                     i2u186_45:
  3592  0018BC  8494               	bsf	148,2,c	;volatile
  3593  0018BE                     i2u186_46:
  3594                           
  3595                           ;LCD.h: 130: TRISCbits.RC3 = (char)_4bit_[0x03];
  3596  0018BE  B00E               	btfsc	(i2LCD_INSTRUCTION_4BIT@_4bit_+6)^0,0,c
  3597  0018C0  D002               	bra	i2u187_45
  3598  0018C2  9694               	bcf	148,3,c	;volatile
  3599  0018C4  D001               	bra	i2u187_46
  3600  0018C6                     i2u187_45:
  3601  0018C6  8694               	bsf	148,3,c	;volatile
  3602  0018C8                     i2u187_46:
  3603                           
  3604                           ;LCD.h: 131: PORTJbits.RJ1 = 0x00;
  3605  0018C8  9288               	bcf	136,1,c	;volatile
  3606                           
  3607                           ;LCD.h: 132: PORTBbits.RB3 = 0x00;
  3608  0018CA  9681               	bcf	129,3,c	;volatile
  3609                           
  3610                           ;LCD.h: 133: PORTJbits.RJ0 = 0x01;
  3611  0018CC  8088               	bsf	136,0,c	;volatile
  3612  0018CE                     
  3613                           ;LCD.h: 134: _delay((unsigned long)((2)*(0x12BFCE0/4000.0)));
  3614  0018CE  0E0D               	movlw	13
  3615  0018D0  6E01               	movwf	??i2_LCD_INSTRUCTION_4BIT^0,c
  3616  0018D2  0EC3               	movlw	195
  3617  0018D4                     i2u212_47:
  3618  0018D4  2EE8               	decfsz	wreg,f,c
  3619  0018D6  D7FE               	bra	i2u212_47
  3620  0018D8  2E01               	decfsz	??i2_LCD_INSTRUCTION_4BIT^0,f,c
  3621  0018DA  D7FC               	bra	i2u212_47
  3622  0018DC  F000               	nop	
  3623  0018DE                     
  3624                           ;LCD.h: 135: PORTJbits.RJ0 = 0x00;
  3625  0018DE  9088               	bcf	136,0,c	;volatile
  3626  0018E0  0012               	return		;funcret
  3627  0018E2                     __end_ofi2_LCD_INSTRUCTION_4BIT:
  3628                           	callstack 0
  3629                           
  3630                           	psect	rparam
  3631  0000                     
  3632                           	psect	temp
  3633  00003A                     btemp:
  3634                           	callstack 0
  3635  00003A                     	ds	1
  3636  0000                     int$flags	set	btemp
  3637  0000                     wtemp8	set	btemp+1
  3638  0000                     ttemp5	set	btemp+1
  3639  0000                     ttemp6	set	btemp+4
  3640  0000                     ttemp7	set	btemp+8
  3641                           
  3642                           	psect	idloc
  3643                           
  3644                           ;Config register IDLOC0 @ 0x200000
  3645                           ;	unspecified, using default values
  3646  200000                     	org	2097152
  3647  200000  FF                 	db	255
  3648                           
  3649                           ;Config register IDLOC1 @ 0x200001
  3650                           ;	unspecified, using default values
  3651  200001                     	org	2097153
  3652  200001  FF                 	db	255
  3653                           
  3654                           ;Config register IDLOC2 @ 0x200002
  3655                           ;	unspecified, using default values
  3656  200002                     	org	2097154
  3657  200002  FF                 	db	255
  3658                           
  3659                           ;Config register IDLOC3 @ 0x200003
  3660                           ;	unspecified, using default values
  3661  200003                     	org	2097155
  3662  200003  FF                 	db	255
  3663                           
  3664                           ;Config register IDLOC4 @ 0x200004
  3665                           ;	unspecified, using default values
  3666  200004                     	org	2097156
  3667  200004  FF                 	db	255
  3668                           
  3669                           ;Config register IDLOC5 @ 0x200005
  3670                           ;	unspecified, using default values
  3671  200005                     	org	2097157
  3672  200005  FF                 	db	255
  3673                           
  3674                           ;Config register IDLOC6 @ 0x200006
  3675                           ;	unspecified, using default values
  3676  200006                     	org	2097158
  3677  200006  FF                 	db	255
  3678                           
  3679                           ;Config register IDLOC7 @ 0x200007
  3680                           ;	unspecified, using default values
  3681  200007                     	org	2097159
  3682  200007  FF                 	db	255
  3683                           
  3684                           	psect	config
  3685                           
  3686                           ; Padding undefined space
  3687  300000                     	org	3145728
  3688  300000  FF                 	db	255
  3689                           
  3690                           ;Config register CONFIG1H @ 0x300001
  3691                           ;	Oscillator Selection bits
  3692                           ;	OSC = HS, HS oscillator
  3693                           ;	Oscillator System Clock Switch Enable bit
  3694                           ;	OSCS = OFF, Oscillator system clock switch option is disabled (main oscillator is sour
      +                          ce)
  3695  300001                     	org	3145729
  3696  300001  22                 	db	34
  3697                           
  3698                           ;Config register CONFIG2L @ 0x300002
  3699                           ;	Power-up Timer Enable bit
  3700                           ;	PWRT = OFF, PWRT disabled
  3701                           ;	Brown-out Reset Enable bit
  3702                           ;	BOR = OFF, Brown-out Reset disabled
  3703                           ;	Brown-out Reset Voltage bits
  3704                           ;	BORV = 25, VBOR set to 2.5V
  3705  300002                     	org	3145730
  3706  300002  0D                 	db	13
  3707                           
  3708                           ;Config register CONFIG2H @ 0x300003
  3709                           ;	Watchdog Timer Enable bit
  3710                           ;	WDT = OFF, WDT disabled (control is placed on the SWDTEN bit)
  3711                           ;	Watchdog Timer Postscale Select bits
  3712                           ;	WDTPS = 128, 1:128
  3713  300003                     	org	3145731
  3714  300003  0E                 	db	14
  3715                           
  3716                           ;Config register CONFIG3L @ 0x300004
  3717                           ;	Processor Mode Select bits
  3718                           ;	MODE = MC, Microcontroller mode
  3719                           ;	External Bus Data Wait Enable bit
  3720                           ;	WAIT = OFF, Wait selections unavailable for table reads and table writes
  3721  300004                     	org	3145732
  3722  300004  83                 	db	131
  3723                           
  3724                           ;Config register CONFIG3H @ 0x300005
  3725                           ;	CCP2 Mux bit
  3726                           ;	CCP2MUX = OFF, CCP2 is multiplexed with RB3 in Extended Microcontroller, Microprocesso
      +                          r or Microprocessor with Boot Block mode. Or with RE7 in Microcontroller mode.
  3727  300005                     	org	3145733
  3728  300005  02                 	db	2
  3729                           
  3730                           ;Config register CONFIG4L @ 0x300006
  3731                           ;	Stack Full/Underflow Reset Enable bit
  3732                           ;	STVR = OFF, Stack full/underflow will not cause Reset
  3733                           ;	Low-Voltage ICSP Enable bit
  3734                           ;	LVP = OFF, Low-voltage ICSP disabled
  3735                           ;	Background Debugger Enable bit
  3736                           ;	DEBUG = 0x1, unprogrammed default
  3737  300006                     	org	3145734
  3738  300006  80                 	db	128
  3739                           
  3740                           ; Padding undefined space
  3741  300007                     	org	3145735
  3742  300007  FF                 	db	255
  3743                           
  3744                           ;Config register CONFIG5L @ 0x300008
  3745                           ;	Code Protection bit
  3746                           ;	CP0 = OFF, Block 0 (000200-003FFFh) not code-protected
  3747                           ;	Code Protection bit
  3748                           ;	CP1 = OFF, Block 1 (004000-007FFFh) not code-protected
  3749                           ;	Code Protection bit
  3750                           ;	CP2 = OFF, Block 2 (008000-00BFFFh) not code-protected
  3751                           ;	Code Protection bit
  3752                           ;	CP3 = OFF, Block 3 (00C000-00FFFFh) not code-protected
  3753                           ;	Code Protection bit
  3754                           ;	CP4 = OFF, Block 4 (010000-013FFFh) not code-protected
  3755                           ;	Code Protection bit
  3756                           ;	CP5 = OFF, Block 5 (014000-017FFFh) not code-protected
  3757                           ;	Code Protection bit
  3758                           ;	CP6 = OFF, Block 6 (018000-01BFFFh) not code-protected
  3759                           ;	Code Protection bit
  3760                           ;	CP7 = OFF, Block 7 (01C000-01FFFFh) not code-protected
  3761  300008                     	org	3145736
  3762  300008  FF                 	db	255
  3763                           
  3764                           ;Config register CONFIG5H @ 0x300009
  3765                           ;	Boot Block Code Protection bit
  3766                           ;	CPB = OFF, Boot Block (000000-0001FFh) not code-protected
  3767                           ;	Data EEPROM Code Protection bit
  3768                           ;	CPD = OFF, Data EEPROM not code-protected
  3769  300009                     	org	3145737
  3770  300009  C0                 	db	192
  3771                           
  3772                           ;Config register CONFIG6L @ 0x30000A
  3773                           ;	Write Protection bit
  3774                           ;	WRT0 = OFF, Block 0 (000200-003FFFh) not write-protected
  3775                           ;	Write Protection bit
  3776                           ;	WRT1 = OFF, Block 1 (004000-007FFFh) not write-protected
  3777                           ;	Write Protection bit
  3778                           ;	WRT2 = OFF, Block 2 (008000-00BFFFh) not write-protected
  3779                           ;	Write Protection bit
  3780                           ;	WRT3 = OFF, Block 3 (00C000-00FFFFh) not write-protected
  3781                           ;	Write Protection bit
  3782                           ;	WRT4 = OFF, Block 4 (010000-013FFFh) not write-protected
  3783                           ;	Write Protection bit
  3784                           ;	WRT5 = OFF, Block 5 (014000-017FFFh) not write-protected
  3785                           ;	Write Protection bit
  3786                           ;	WRT6 = OFF, Block 6 (018000-01BFFFh) not write-protected
  3787                           ;	Write Protection bit
  3788                           ;	WRT7 = OFF, Block 7 (01C000-01FFFFh) not write-protected
  3789  30000A                     	org	3145738
  3790  30000A  FF                 	db	255
  3791                           
  3792                           ;Config register CONFIG6H @ 0x30000B
  3793                           ;	Configuration Register Write Protection bit
  3794                           ;	WRTC = OFF, Configuration registers (300000-3000FFh) not write-protected
  3795                           ;	Boot Block Write Protection bit
  3796                           ;	WRTB = OFF, Boot Block (000000-0001FFh) not write-protected
  3797                           ;	Data EEPROM Write Protection bit
  3798                           ;	WRTD = OFF, Data EEPROM not write-protected
  3799  30000B                     	org	3145739
  3800  30000B  E0                 	db	224
  3801                           
  3802                           ;Config register CONFIG7L @ 0x30000C
  3803                           ;	Table Read Protection bit
  3804                           ;	EBTR0 = OFF, Block 0 (000200-003FFFh) not protected from table reads executed in other
      +                           blocks
  3805                           ;	Table Read Protection bit
  3806                           ;	EBTR1 = OFF, Block 1 (004000-007FFFh) not protected from table reads executed in other
      +                           blocks
  3807                           ;	Table Read Protection bit
  3808                           ;	EBTR2 = OFF, Block 2 (008000-00BFFFh) not protected from table reads executed in other
      +                           blocks
  3809                           ;	Table Read Protection bit
  3810                           ;	EBTR3 = OFF, Block 3 (00C000-00FFFFh) not protected from table reads executed in other
      +                           blocks
  3811                           ;	Table Read Protection bit
  3812                           ;	EBTR4 = OFF, Block 4 (010000-013FFFh) not protected from table reads executed in other
      +                           blocks
  3813                           ;	Table Read Protection bit
  3814                           ;	EBTR5 = OFF, Block 5 (014000-017FFFh) not protected from table reads executed in other
      +                           blocks
  3815                           ;	Table Read Protection bit
  3816                           ;	EBTR6 = OFF, Block 6 (018000-01BFFFh) not protected from table reads executed in other
      +                           blocks
  3817                           ;	Table Read Protection bit
  3818                           ;	EBTR7 = OFF, Block 7 (01C000-01FFFFh) not protected from table reads executed in other
      +                           blocks
  3819  30000C                     	org	3145740
  3820  30000C  FF                 	db	255
  3821                           
  3822                           ;Config register CONFIG7H @ 0x30000D
  3823                           ;	Boot Block Table Read Protection bit
  3824                           ;	EBTRB = OFF, Boot Block (000000-0001FFh) not protected from table reads executed in ot
      +                          her blocks
  3825  30000D                     	org	3145741
  3826  30000D  40                 	db	64
  3827                           tosu	equ	0xFFF
  3828                           tosh	equ	0xFFE
  3829                           tosl	equ	0xFFD
  3830                           stkptr	equ	0xFFC
  3831                           pclatu	equ	0xFFB
  3832                           pclath	equ	0xFFA
  3833                           pcl	equ	0xFF9
  3834                           tblptru	equ	0xFF8
  3835                           tblptrh	equ	0xFF7
  3836                           tblptrl	equ	0xFF6
  3837                           tablat	equ	0xFF5
  3838                           prodh	equ	0xFF4
  3839                           prodl	equ	0xFF3
  3840                           indf0	equ	0xFEF
  3841                           postinc0	equ	0xFEE
  3842                           postdec0	equ	0xFED
  3843                           preinc0	equ	0xFEC
  3844                           plusw0	equ	0xFEB
  3845                           fsr0h	equ	0xFEA
  3846                           fsr0l	equ	0xFE9
  3847                           wreg	equ	0xFE8
  3848                           indf1	equ	0xFE7
  3849                           postinc1	equ	0xFE6
  3850                           postdec1	equ	0xFE5
  3851                           preinc1	equ	0xFE4
  3852                           plusw1	equ	0xFE3
  3853                           fsr1h	equ	0xFE2
  3854                           fsr1l	equ	0xFE1
  3855                           bsr	equ	0xFE0
  3856                           indf2	equ	0xFDF
  3857                           postinc2	equ	0xFDE
  3858                           postdec2	equ	0xFDD
  3859                           preinc2	equ	0xFDC
  3860                           plusw2	equ	0xFDB
  3861                           fsr2h	equ	0xFDA
  3862                           fsr2l	equ	0xFD9
  3863                           status	equ	0xFD8

Data Sizes:
    Strings     49
    Constant    0
    Data        0
    BSS         0
    Persistent  0
    Stack       0

Auto Spaces:
    Space          Size  Autos    Used
    COMRAM           94     57      57
    BANK0           160     55      55
    BANK1           256      0       0
    BANK2           256      0       0
    BANK3           256      0       0
    BANK4           256      0       0
    BANK5           256      0       0
    BANK6           256      0       0
    BANK7           256      0       0
    BANK8           256      0       0
    BANK9           256      0       0
    BANK10          256      0       0
    BANK11          256      0       0
    BANK12          256      0       0
    BANK13          256      0       0
    BANK14          256      0       0

Pointer List with Targets:

    strlen@s	PTR const unsigned char  size(2) Largest target is 19
		 -> STR_3(CODE[15]), STR_2(CODE[15]), STR_1(CODE[19]), 

    strlen@cp	PTR const unsigned char  size(2) Largest target is 19
		 -> STR_3(CODE[15]), STR_2(CODE[15]), STR_1(CODE[19]), 

    LCD_DISPLAY@string	PTR const unsigned char  size(2) Largest target is 19
		 -> STR_3(CODE[15]), STR_2(CODE[15]), STR_1(CODE[19]), 


Critical Paths under _main in COMRAM

    None.

Critical Paths under _ISR_2 in COMRAM

    i1_LCD_DISPLAY->i1_LCD_DATA
    _LCD_20_LINE3->i1_LCD_INSTRUCTION_4BIT

Critical Paths under _ISR_1 in COMRAM

    _ISR_1->i2_LCD_DISPLAY
    i2_LCD_DISPLAY->i2_LCD_DATA
    _LCD_20_LINE2->i2_LCD_INSTRUCTION_4BIT

Critical Paths under _main in BANK0

    _main->_LCD_DISPLAY
    _LCD_INITIALIZE_4BIT->_LCD_INSTRUCTION_4BIT
    _LCD_DISPLAY->_LCD_DATA
    _LCD_20_LINE1->_LCD_INSTRUCTION_4BIT

Critical Paths under _ISR_2 in BANK0

    i1_LCD_DISPLAY->i1_LCD_DATA

Critical Paths under _ISR_1 in BANK0

    None.

Critical Paths under _main in BANK1

    None.

Critical Paths under _ISR_2 in BANK1

    None.

Critical Paths under _ISR_1 in BANK1

    None.

Critical Paths under _main in BANK2

    None.

Critical Paths under _ISR_2 in BANK2

    None.

Critical Paths under _ISR_1 in BANK2

    None.

Critical Paths under _main in BANK3

    None.

Critical Paths under _ISR_2 in BANK3

    None.

Critical Paths under _ISR_1 in BANK3

    None.

Critical Paths under _main in BANK4

    None.

Critical Paths under _ISR_2 in BANK4

    None.

Critical Paths under _ISR_1 in BANK4

    None.

Critical Paths under _main in BANK5

    None.

Critical Paths under _ISR_2 in BANK5

    None.

Critical Paths under _ISR_1 in BANK5

    None.

Critical Paths under _main in BANK6

    None.

Critical Paths under _ISR_2 in BANK6

    None.

Critical Paths under _ISR_1 in BANK6

    None.

Critical Paths under _main in BANK7

    None.

Critical Paths under _ISR_2 in BANK7

    None.

Critical Paths under _ISR_1 in BANK7

    None.

Critical Paths under _main in BANK8

    None.

Critical Paths under _ISR_2 in BANK8

    None.

Critical Paths under _ISR_1 in BANK8

    None.

Critical Paths under _main in BANK9

    None.

Critical Paths under _ISR_2 in BANK9

    None.

Critical Paths under _ISR_1 in BANK9

    None.

Critical Paths under _main in BANK10

    None.

Critical Paths under _ISR_2 in BANK10

    None.

Critical Paths under _ISR_1 in BANK10

    None.

Critical Paths under _main in BANK11

    None.

Critical Paths under _ISR_2 in BANK11

    None.

Critical Paths under _ISR_1 in BANK11

    None.

Critical Paths under _main in BANK12

    None.

Critical Paths under _ISR_2 in BANK12

    None.

Critical Paths under _ISR_1 in BANK12

    None.

Critical Paths under _main in BANK13

    None.

Critical Paths under _ISR_2 in BANK13

    None.

Critical Paths under _ISR_1 in BANK13

    None.

Critical Paths under _main in BANK14

    None.

Critical Paths under _ISR_2 in BANK14

    None.

Critical Paths under _ISR_1 in BANK14

    None.

Call Graph Tables:

 ---------------------------------------------------------------------------------
 (Depth) Function   	        Calls       Base Space   Used Autos Params    Refs
 ---------------------------------------------------------------------------------
 (0) _main                                                 0     0      0    2330
                          _Blink_LED
                     _Interrupt_init
                       _LCD_20_LINE1
                        _LCD_DISPLAY
                _LCD_INITIALIZE_4BIT
                     _LCD_SETUP_4BIT
 ---------------------------------------------------------------------------------
 (1) _LCD_SETUP_4BIT                                       0     0      0       0
 ---------------------------------------------------------------------------------
 (1) _LCD_INITIALIZE_4BIT                                  0     0      0     567
               _LCD_INSTRUCTION_4BIT
 ---------------------------------------------------------------------------------
 (1) _LCD_DISPLAY                                          8     6      2    1196
                                             47 BANK0      8     6      2
                           _LCD_DATA
                             _strlen
 ---------------------------------------------------------------------------------
 (2) _strlen                                               4     2      2     166
                                             25 BANK0      4     2      2
 ---------------------------------------------------------------------------------
 (2) _LCD_DATA                                            22    20      2     741
                                             25 BANK0     22    20      2
 ---------------------------------------------------------------------------------
 (1) _LCD_20_LINE1                                         0     0      0     567
               _LCD_INSTRUCTION_4BIT
 ---------------------------------------------------------------------------------
 (2) _LCD_INSTRUCTION_4BIT                                20    20      0     567
                                             25 BANK0     20    20      0
 ---------------------------------------------------------------------------------
 (1) _Interrupt_init                                       0     0      0       0
 ---------------------------------------------------------------------------------
 (1) _Blink_LED                                            2     2      0       0
                                             25 BANK0      2     2      0
 ---------------------------------------------------------------------------------
 Estimated maximum stack depth 2
 ---------------------------------------------------------------------------------
 (Depth) Function   	        Calls       Base Space   Used Autos Params    Refs
 ---------------------------------------------------------------------------------
 (3) _ISR_2                                               11    11      0    1461
                                             14 BANK0     11    11      0
                       _LCD_20_LINE3
                      i1_LCD_DISPLAY
 ---------------------------------------------------------------------------------
 (4) i1_LCD_DISPLAY                                        8     6      2     870
                                             45 COMRAM     8     6      2
                         i1_LCD_DATA
                           i1_strlen
 ---------------------------------------------------------------------------------
 (5) i1_strlen                                             4     2      2     116
                                             37 COMRAM     4     2      2
 ---------------------------------------------------------------------------------
 (5) i1_LCD_DATA                                          22    20      2     615
                                             37 COMRAM     8     6      2
                                              0 BANK0     14    14      0
 ---------------------------------------------------------------------------------
 (4) _LCD_20_LINE3                                         0     0      0     567
             i1_LCD_INSTRUCTION_4BIT
 ---------------------------------------------------------------------------------
 (5) i1_LCD_INSTRUCTION_4BIT                              20    20      0     567
                                             37 COMRAM    20    20      0
 ---------------------------------------------------------------------------------
 Estimated maximum stack depth 5
 ---------------------------------------------------------------------------------
 (Depth) Function   	        Calls       Base Space   Used Autos Params    Refs
 ---------------------------------------------------------------------------------
 (6) _ISR_1                                                7     7      0    1437
                                             30 COMRAM     7     7      0
                       _LCD_20_LINE2
                      i2_LCD_DISPLAY
 ---------------------------------------------------------------------------------
 (7) i2_LCD_DISPLAY                                        8     6      2     870
                                             22 COMRAM     8     6      2
                         i2_LCD_DATA
                           i2_strlen
 ---------------------------------------------------------------------------------
 (8) i2_strlen                                             4     2      2     116
                                              0 COMRAM     4     2      2
 ---------------------------------------------------------------------------------
 (8) i2_LCD_DATA                                          22    20      2     615
                                              0 COMRAM    22    20      2
 ---------------------------------------------------------------------------------
 (7) _LCD_20_LINE2                                         0     0      0     567
             i2_LCD_INSTRUCTION_4BIT
 ---------------------------------------------------------------------------------
 (8) i2_LCD_INSTRUCTION_4BIT                              20    20      0     567
                                              0 COMRAM    20    20      0
 ---------------------------------------------------------------------------------
 Estimated maximum stack depth 8
 ---------------------------------------------------------------------------------

 Call Graph Graphs:

 _main (ROOT)
   _Blink_LED
   _Interrupt_init
   _LCD_20_LINE1
     _LCD_INSTRUCTION_4BIT
   _LCD_DISPLAY
     _LCD_DATA
     _strlen
   _LCD_INITIALIZE_4BIT
     _LCD_INSTRUCTION_4BIT
   _LCD_SETUP_4BIT

 _ISR_2 (ROOT)
   _LCD_20_LINE3
     i1_LCD_INSTRUCTION_4BIT
   i1_LCD_DISPLAY
     i1_LCD_DATA
     i1_strlen

 _ISR_1 (ROOT)
   _LCD_20_LINE2
     i2_LCD_INSTRUCTION_4BIT
   i2_LCD_DISPLAY
     i2_LCD_DATA
     i2_strlen

 Address spaces:
Name               Size   Autos  Total    Cost      Usage
BITCOMRAM           5E      0       0       0        0.0%
EEDATA             400      0       0       0        0.0%
NULL                 0      0       0       0        0.0%
CODE                 0      0       0       0        0.0%
COMRAM              5E     39      39       1       60.6%
STACK                0      0       0       2        0.0%
DATA                 0      0       0       3        0.0%
BITBANK0            A0      0       0       4        0.0%
BANK0               A0     37      37       5       34.4%
BITBANK1           100      0       0       6        0.0%
BANK1              100      0       0       7        0.0%
BITBANK2           100      0       0       8        0.0%
BANK2              100      0       0       9        0.0%
BITBANK3           100      0       0      10        0.0%
BANK3              100      0       0      11        0.0%
BITBANK4           100      0       0      12        0.0%
BANK4              100      0       0      13        0.0%
BITBANK5           100      0       0      14        0.0%
BANK5              100      0       0      15        0.0%
BITBANK6           100      0       0      16        0.0%
BANK6              100      0       0      17        0.0%
BITBANK7           100      0       0      18        0.0%
BANK7              100      0       0      19        0.0%
BITBANK8           100      0       0      20        0.0%
BANK8              100      0       0      21        0.0%
BITBANK9           100      0       0      22        0.0%
BANK9              100      0       0      23        0.0%
BITBANK10          100      0       0      24        0.0%
BANK10             100      0       0      25        0.0%
BITBANK11          100      0       0      26        0.0%
BANK11             100      0       0      27        0.0%
BITBANK12          100      0       0      28        0.0%
BANK12             100      0       0      29        0.0%
BITBANK13          100      0       0      30        0.0%
BANK13             100      0       0      31        0.0%
BITBANK14          100      0       0      32        0.0%
BANK14             100      0       0      33        0.0%
BITBIGSFRhhhhh       D      0       0      34        0.0%
BITBIGSFRhhhhlh     1F      0       0      35        0.0%
BITBIGSFRhhhhll      2      0       0      36        0.0%
BITBIGSFRhhhl        6      0       0      37        0.0%
BITBIGSFRhhl         8      0       0      38        0.0%
BITBIGSFRhl          2      0       0      39        0.0%
BITBIGSFRlh          E      0       0      40        0.0%
BITBIGSFRllhh       10      0       0      41        0.0%
BITBIGSFRllhlh       4      0       0      42        0.0%
BITBIGSFRllhllh      A      0       0      43        0.0%
BITBIGSFRllhlll      4      0       0      44        0.0%
BITBIGSFRllhlll      1      0       0      45        0.0%
BITBIGSFRllhlll     15      0       0      46        0.0%
BITBIGSFRlll         B      0       0      47        0.0%
ABS                  0      0       0      48        0.0%
BIGRAM             EFF      0       0      49        0.0%
BIGSFR               0      0       0     200        0.0%
BITSFR               0      0       0     200        0.0%
SFR                  0      0       0     200        0.0%


Microchip Technology PIC18 Macro Assembler V2.36 build 20220127204148 
Symbol Table                                                                                   Sat Oct 29 17:32:17 2022

                 ??_Interrupt_init 0079                                 l62 0FD6  
                               l71 13F4                                 l72 143A  
                               l64 10A0                                 l65 10E6  
                               l81 19CA                                 l57 1BD8  
                               l90 1C38                                 l75 1C1E  
                               l69 132A                                 bsr 000FE0  
                              l116 1BFE                                l133 1B3C  
                              l801 1AC8                                wreg 000FE8  
                   i1LCD_DATA@data 0060                     i1LCD_DATA@mode 0026  
                      ?i1_LCD_DATA 0026                               l1311 10D4  
                             l1313 10E4                               l1305 102A  
                             l1331 135E                               l1315 12A0  
                             l1307 1080                               l1333 136E  
                             l1325 12B4                               l1317 12A4  
                             l1309 1084                               l1351 1438  
                             l1343 137E                               l1335 1370  
                             l1327 130A                               l1319 12AC  
                             l1345 13D4                               l1337 1374  
                             l1329 130E                               l1281 0F58  
                             l1353 1A8C                               l1347 13D8  
                             l1291 0FBA                               l1275 0F38  
                             l1355 1A98                               l1349 1428  
                             l1293 100A                               l1277 0F3C  
                             l1357 1A9E                               l1541 1C00  
                             l1621 1ACA                               l1295 101A  
                             l1287 0F60                               l1279 0F52  
                             l1359 1ABA                               l1551 19B4  
                             l1543 1968                               l1631 1AEA  
                             l1623 1ADA                               l1561 1BE4  
                             l1553 1C32                               l1297 101C  
                             l1289 0FB6                               l1545 197C  
                             l1633 1AEE                               l1625 1ADE  
                             l1571 1BEE                               l1563 1BE6  
                             l1299 1020                               l1547 198A  
                             l1539 1BB2                               l1627 1AE2  
                             l1581 1BFA                               l1573 1BF0  
                             l1565 1BE8                               l1549 19AE  
                             l1629 1AE6                               l1583 1BFC  
                             l1575 1BF2                               l1567 1BEA  
                             l1559 1BDA                               l1585 1B04  
                             l1577 1BF6                               l1569 1BEC  
                             l1587 1B06                               l1579 1BF8  
                             l1589 1B20                               STR_1 0F01  
                             STR_2 0F14                               STR_3 0F23  
                             u1000 0F52                               u1001 0F4E  
                             u1100 10A0                               u1101 109C  
                             u1030 0FD6                               u1014 0F76  
                             u1031 0FD2                               u1015 0F72  
                             u1024 0F8E                               u1025 0F8A  
                             u1115 10A8                               u1116 10AA  
                             u1205 134A                               u1125 10B4  
                             u1045 0FDE                               u1206 134C  
                             u1126 10B6                               u1046 0FE0  
                             u1215 1356                               u2007 10DC  
                             u1135 10C0                               u1055 0FEA  
                             u1240 13F4                               u1224 1394  
                             u1216 1358                               u1136 10C2  
                             u1056 0FEC                               u1241 13F0  
                             u1225 1390                               u2017 1366  
                             u1145 10CC                               u1065 0FF6  
                             u1234 13AC                               u1170 132A  
                             u1154 12CA                               u1146 10CE  
                             u1066 0FF8                               u2027 1430  
                             u1235 13A8                               u1171 1326  
                             u1155 12C6                               u1075 1002  
                             u1164 12E2                               u1084 1040  
                             u1076 1004                               u2037 1B12  
                             u1165 12DE                               u1085 103C  
                             u1094 1058                               u2047 1B2E  
                             u1255 13FC                               u1095 1054  
                             u1256 13FE                               u1265 1408  
                             u1185 1332                               u1266 140A  
                             u1186 1334                               u1290 1ABA  
                             u1275 1414                               u1195 133E  
                             u1291 1AB6                               u1276 1416  
                             u1196 1340                               u1285 1420  
                             u1286 1422                               u1900 19CA  
                             u1901 19C6                               u1997 1012  
                             i1l62 118A                               i1l71 171A  
                             i1l72 175A                               i1l64 1254  
                             i1l65 129A                               i1l81 1A2A  
                             i1l69 165C                               i2l62 14D6  
                             i2l71 18A0                               i2l72 18E0  
                             i2l64 1594                               i1l96 1C40  
                             i2l65 15D4                               i2l81 1A8A  
                             i2l69 17E2                               i2l93 1C48  
                      ?i2_LCD_DATA 0001                               _main 1ACA  
             _LCD_INSTRUCTION_4BIT 129C                               fsr2h 000FDA  
                             fsr2l 000FD9                               btemp 003A  
                   i1LCD_DISPLAY@x 0034                               start 00D6  
                     ___param_bank 000000                    i1LCD_DATA@_data 0069  
                  i1LCD_DATA@x_979 006C                   __end_of_LCD_DATA 10E8  
                            ?_main 0001                              i1l130 00AE  
                            i2l122 194C                              i1l801 1B76  
                            i2l801 1BB0                              _ISR_1 0008  
                            _ISR_2 0018                              tablat 000FF5  
            ?_LCD_INSTRUCTION_4BIT 0001                              ttemp5 003B  
                            ttemp6 003E                              ttemp7 0042  
                            status 000FD8                              wtemp8 003B  
              i2LCD_DISPLAY@length 001B                   i1LCD_DATA@_4bit_ 0061  
             __end_of_LCD_20_LINE1 1C3A               __end_of_LCD_20_LINE2 1C4A  
             __end_of_LCD_20_LINE3 1C42                   __end_ofi1_strlen 1B78  
              i2LCD_DISPLAY@string 0017                   __end_ofi2_strlen 1BB2  
                  __initialization 1C20                       __end_of_main 1B04  
                           ??_main 0097                         i1strlen@cp 0028  
                    __activetblptr 000001                             ?_ISR_1 0001  
                           ?_ISR_2 0001                         i2strlen@cp 0003  
                   i2LCD_DATA@data 0009                     i2LCD_DATA@mode 0001  
                           i1l1401 1298                             i1l1521 1B4A  
                           i1l1443 15D8                             i1l1363 10EC  
                           i1l1523 1B4E                             i1l1461 169A  
                           i1l1453 15EA                             i1l1445 15DC  
                           i1l1381 11BE                             i1l1365 10F0  
                           i1l1525 1B6A                             i1l1471 16A8  
                           i1l1463 169C                             i1l1455 163C  
                           i1l1447 15E2                             i1l1383 11CE  
                           i1l1375 1114                             i1l1367 1104  
                           i1l1519 1B3E                             i1l1473 16FA  
                           i1l1465 16A0                             i1l1457 1640  
                           i1l1393 11DE                             i1l1385 11D0  
                           i1l1377 116A                             i1l1369 110C  
                           i1l1475 16FE                             i1l1459 168A  
                           i1l1395 1234                             i1l1387 11D4  
                           i1l1379 116E                             i1l1651 0052  
                           i1l1477 1748                             i1l1557 1C3A  
                           i1l1397 1238                             i1l1661 00AC  
                           i1l1653 0056                             i1l1479 1758  
                           i1l1399 1288                             i1l1591 19CC  
                           i1l1655 0074                             i1l1647 003E  
                           i1l1593 19E0                             i1l1657 0078  
                           i1l1649 0044                             i1l1595 19EC  
                           i1l1659 0084                             i1l1597 1A10  
                           i1l1599 1A14                             i2l1403 143E  
                           i2l1501 1822                             i2l1421 1504  
                           i2l1405 1442                             i2l1511 1880  
                           i2l1503 1826                             i2l1423 1514  
                           i2l1415 1464                             i2l1407 1456  
                           i2l1513 1884                             i2l1441 15D2  
                           i2l1433 1522                             i2l1425 1516  
                           i2l1417 14B6                             i2l1409 145C  
                           i2l1601 1A2C                             i2l1515 18CE  
                           i2l1435 1574                             i2l1427 151A  
                           i2l1419 14BA                             i2l1531 1B84  
                           i2l1603 1A40                             i2l1517 18DE  
                           i2l1509 182E                             i2l1437 1578  
                           i2l1533 1B88                             i2l1605 1A4C  
                           i2l1439 15C2                             i2l1535 1BA4  
                           i2l1607 1A70                             i2l1481 175E  
                           i2l1529 1B78                             i2l1609 1A74  
                           i2l1641 191A                             i2l1491 1770  
                           i2l1483 1762                             i2l1555 1C42  
                           i2l1643 1926                             i2l1635 18FA  
                           i2l1493 17C2                             i2l1485 1768  
                           i2l1645 194A                             i2l1637 1908  
                           i2l1495 17C6                             i2l1639 1916  
                           i2l1497 1810                             i2l1499 1820  
                           _TRISC0 007CA0                             _TRISB3 007C9B  
                           _TRISC1 007CA1                             _TRISC2 007CA2  
                           _TRISC3 007CA3                             _TRISJ0 007CD0  
                           _TRISJ1 007CD1                     i2LCD_DISPLAY@x 001D  
                 ??_LCD_SETUP_4BIT 0079            i1LCD_INSTRUCTION_4BIT@x 0036  
                           isa$std 000001                             _strlen 1A8C  
                     __mediumconst 0000                             tblptrh 000FF7  
                           tblptrl 000FF6                             tblptru 000FF8  
          ?i1_LCD_INSTRUCTION_4BIT 0001                          LCD_DATA@x 008B  
           ??_LCD_INSTRUCTION_4BIT 0079                          ?_LCD_DATA 0079  
                    i1_LCD_DISPLAY 19CC                         __accesstop 0060  
          __end_of__initialization 1C20                  __end_of_Blink_LED 1B3E  
                    ___rparam_used 000001                      __end_of_ISR_1 1968  
                    __end_of_ISR_2 00D6                     __pcstackCOMRAM 0001  
                          ??_ISR_1 001F                            ??_ISR_2 006E  
   __end_ofi1_LCD_INSTRUCTION_4BIT 175C                          ?i1_strlen 0026  
                     ??i1_LCD_DATA 0028                          ?i2_strlen 0001  
                   ?i1_LCD_DISPLAY 002E                       ??i2_LCD_DATA 0003  
                       ??_LCD_DATA 007B          LCD_INSTRUCTION_4BIT@x_985 008B  
                    i2_LCD_DISPLAY 1A2C                    i2LCD_DATA@_data 0012  
                  i2LCD_DATA@x_979 0015                 __end_ofi1_LCD_DATA 129C  
                          ?_strlen 0079                 __end_ofi2_LCD_DATA 15D6  
            LCD_INSTRUCTION_4BIT@x 0089                       _LCD_20_LINE1 1C32  
                     _LCD_20_LINE2 1C42                       _LCD_20_LINE3 1C3A  
                       ??i1_strlen 0028                         ??i2_strlen 0003  
                   ?i2_LCD_DISPLAY 0017                            __Hparam 0000  
                          __Lparam 0000                       __psmallconst 0F00  
      i1LCD_INSTRUCTION_4BIT@x_985 0038                            __pcinit 1C20  
                          __ramtop 0F00           ??i2_LCD_INSTRUCTION_4BIT 0001  
                          __ptext0 1ACA                            __ptext1 1BB2  
                          __ptext2 1C00                            __ptext3 1968  
                          __ptext4 1A8C                            __ptext5 0F34  
                          __ptext6 1C32                            __ptext7 129C  
                          __ptext8 1BDA                            __ptext9 1B04  
                LCD_DISPLAY@length 0093                          _T1CONbits 000FCD  
                LCD_DISPLAY@string 008F                    ??i1_LCD_DISPLAY 0030  
                   __pintcode_body 18E2               end_of_initialization 1C20  
                          int_func 18E2                            postdec2 000FDD  
                          postinc2 000FDE                            strlen@s 0079  
                        _PORTBbits 000F81                          _PORTDbits 000F83  
                        _PORTJbits 000F88                          _TRISBbits 000F93  
                        _TRISCbits 000F94                          _TRISDbits 000F95  
                  ??i2_LCD_DISPLAY 0019                      ??_LCD_DISPLAY 0091  
                      _CCP1CONbits 000FBD                        _CCP2CONbits 000FBA  
                        _Blink_LED 1B04       i2LCD_INSTRUCTION_4BIT@_4bit_ 0008  
          i2LCD_INSTRUCTION_4BIT@x 0011                _LCD_INITIALIZE_4BIT 1C00  
                   __end_of_strlen 1ACA                start_initialization 1C20  
                        i1strlen@s 0026                          i2strlen@s 0001  
             ?_LCD_INITIALIZE_4BIT 0001         i2LCD_INSTRUCTION_4BIT@data 0010  
              __end_of_LCD_DISPLAY 19CC                         ?_Blink_LED 0001  
       LCD_INSTRUCTION_4BIT@_4bit_ 0080                           ??_strlen 007B  
                   _Interrupt_init 1BDA                        i1LCD_DATA@x 006A  
                    __pcstackBANK0 0060                        i2LCD_DATA@x 0013  
           i2_LCD_INSTRUCTION_4BIT 175C              ??_LCD_INITIALIZE_4BIT 008D  
                 i2LCD_DATA@_4bit_ 000A                          __pintcode 0008  
                      __pintcodelo 0018             __end_of_Interrupt_init 1C00  
                      __smallconst 0F00                        _LCD_DISPLAY 1968  
                         _LCD_DATA 0F34                           i1u130_20 1104  
                         i1u130_21 1100                           i1u131_24 112A  
                         i1u131_25 1126                           i1u140_20 1254  
                         i1u140_21 1250                           i1u132_24 1142  
                         i1u132_25 113E                           i1u133_20 118A  
                         i1u133_21 1186                           i1u141_25 125C  
                         i1u141_26 125E                           i1u205_27 11C4  
                         i1u142_25 1268                           i1u134_25 1192  
                         i1u142_26 126A                           i1u134_26 1194  
                         i1u206_27 128E                           i1u143_25 1274  
                         i1u135_25 119E                           i1u143_26 1276  
                         i1u135_26 11A0                           i1u207_27 1690  
                         i1u160_24 1600                           i1u160_25 15FC  
                         i1u144_25 1280                           i1u136_25 11AA  
                         i1u144_26 1282                           i1u136_26 11AC  
                         i1u208_27 174E                           i1u161_24 1616  
                         i1u161_25 1612                           i1u137_25 11B6  
                         i1u137_26 11B8                           i1u162_20 165C  
                         i1u162_21 1658                           i1u138_24 11F4  
                         i1u170_25 1722                           i1u138_25 11F0  
                         i1u170_26 1724                           i1u139_24 120C  
                         i1u171_25 172C                           i1u163_25 1664  
                         i1u139_25 1208                           i1u171_26 172E  
                         i1u163_26 1666                           i1u172_25 1736  
                         i1u164_25 166E                           i1u172_26 1738  
                         i1u164_26 1670                           i1u173_25 1740  
                         i1u165_25 1678                           i1u173_26 1742  
                         i1u165_26 167A                           i1u166_25 1682  
                         i1u166_26 1684                           i1u191_20 1A2A  
                         i1u191_21 1A26                           i1u167_24 16BE  
                         i1u167_25 16BA                           i1u168_24 16D4  
                         i1u168_25 16D0                           i1u169_20 171A  
                         i1u169_21 1716                           i2u210_47 15C8  
                         i1u188_20 1B6A                           i1u196_20 0052  
                         i1u188_21 1B66                           i1u196_21 004E  
                         i2u211_47 1816                           i1u197_20 0074  
                         i1u197_21 0070                           i2u212_47 18D4  
                         i1u198_20 0094                           i1u198_21 008E  
                         i1u198_26 0096                           i2u150_45 14E8  
                         i2u150_46 14EA                           i2u151_45 14F2  
                         i2u151_46 14F4                           i2u152_45 14FC  
                         i2u152_46 14FE                           i2u145_40 1456  
                         i2u145_41 1452                           i2u153_44 1538  
                         i2u153_45 1534                           i2u209_47 150A  
                         i2u154_44 154E                           i2u146_44 147A  
                         i2u154_45 154A                           i2u146_45 1476  
                         i2u155_40 1594                           i2u155_41 1590  
                         i2u147_44 1490                           i2u147_45 148C  
                      ??_Blink_LED 0079                           i2u148_40 14D6  
                         i2u148_41 14D2                           i2u180_45 1808  
                         i2u156_45 159C                           i2u180_46 180A  
                         i2u156_46 159E                           i2u181_44 1844  
                         i2u181_45 1840                           i2u157_45 15A6  
                         i2u149_45 14DE                           i2u157_46 15A8  
                         i2u149_46 14E0                           i2u182_44 185A  
                         i2u174_44 1786                           i2u182_45 1856  
                         i2u174_45 1782                           i2u158_45 15B0  
                         i2u158_46 15B2                           i2u183_40 18A0  
                         i2u183_41 189C                           i2u175_44 179C  
                         i2u175_45 1798                           i2u159_45 15BA  
                         i2u159_46 15BC                           i2u176_40 17E2  
                         i2u192_40 1A8A                           i2u176_41 17DE  
                         i2u192_41 1A86                           i2u184_45 18A8  
                         i2u184_46 18AA                           i2u193_40 1908  
                         i2u193_41 1904                           i2u185_45 18B2  
                         i2u177_45 17EA                           i2u185_46 18B4  
                         i2u177_46 17EC                           i2u194_40 1916  
                         i2u194_41 1912                           i2u186_45 18BC  
                         i2u178_45 17F4                           i2u186_46 18BE  
                         i2u178_46 17F6                           i2u195_40 1936  
                         i2u195_41 1930                           i2u187_45 18C6  
                         i2u179_45 17FE                           i2u187_46 18C8  
                         i2u179_46 1800                           i2u195_46 1938  
                         i2u189_40 1BA4                           i2u189_41 1BA0  
                         _RCONbits 000FD0  i1LCD_INSTRUCTION_4BIT@instruction 002C  
i2LCD_INSTRUCTION_4BIT@instruction 0007    LCD_INSTRUCTION_4BIT@instruction 007F  
         ??i1_LCD_INSTRUCTION_4BIT 0026                    ?_Interrupt_init 0001  
                         i1_strlen 1B3E                           i2_strlen 1B78  
                      _INTCON2bits 000FF1                        _INTCON3bits 000FF0  
      i2LCD_INSTRUCTION_4BIT@x_985 0013              __end_ofi1_LCD_DISPLAY 1A2C  
              i1LCD_DISPLAY@length 0032                           __Hrparam 0000  
              i1LCD_DISPLAY@string 002E                           __Lrparam 0000  
                     __Lsmallconst 0F00       i1LCD_INSTRUCTION_4BIT@_4bit_ 002D  
                   _LCD_SETUP_4BIT 1BB2                     LCD_DATA@_4bit_ 0082  
                         __ptext11 19CC                           __ptext20 1C42  
                         __ptext12 1B3E                           __ptext21 175C  
                         __ptext13 10E8                           __ptext14 1C3A  
                         __ptext15 15D6                           __ptext17 1A2C  
                         __ptext18 1B78                           __ptext19 143C  
            __end_ofi2_LCD_DISPLAY 1A8C           LCD_INSTRUCTION_4BIT@data 0088  
                         isa$xinst 000000                           int$flags 003A  
           __end_of_LCD_SETUP_4BIT 1BDA       __end_of_LCD_INSTRUCTION_4BIT 143C  
                       _INTCONbits 000FF2                      ?_LCD_20_LINE1 0001  
                    ?_LCD_20_LINE2 0001                      ?_LCD_20_LINE3 0001  
                       _ISR_2$1093 0078                         i1_LCD_DATA 10E8  
          ?i2_LCD_INSTRUCTION_4BIT 0001         i1LCD_INSTRUCTION_4BIT@data 0035  
                         intlevel1 0000                           intlevel2 0000  
                       i2_LCD_DATA 143C                      LCD_DATA@_data 008A  
                    LCD_DATA@x_979 008D                         _RCSTA1bits 000FAB  
                       _RCSTA2bits 000F6B                    ?_LCD_SETUP_4BIT 0001  
                   ??_LCD_20_LINE1 008D                     ??_LCD_20_LINE2 0015  
                   ??_LCD_20_LINE3 003A                       LCD_DATA@data 0081  
                         strlen@cp 007B                       LCD_DATA@mode 0079  
   __end_ofi2_LCD_INSTRUCTION_4BIT 18E2                        _SSPCON1bits 000FC6  
      __end_of_LCD_INITIALIZE_4BIT 1C20                       ?_LCD_DISPLAY 008F  
                     LCD_DISPLAY@x 0095             i1_LCD_INSTRUCTION_4BIT 15D6  
